
Rotator.elf:     file format elf32-littlearm

Sections:
Idx Name          Size      VMA       LMA       File off  Algn
  0 .isr_vector   000000c0  08000000  08000000  00010000  2**0
                  CONTENTS, ALLOC, LOAD, READONLY, DATA
  1 .text         000035f0  080000c0  080000c0  000100c0  2**2
                  CONTENTS, ALLOC, LOAD, READONLY, CODE
  2 .rodata       00000098  080036b0  080036b0  000136b0  2**0
                  CONTENTS, ALLOC, LOAD, READONLY, DATA
  3 .ARM.extab    00000000  08003748  08003748  00020074  2**0
                  CONTENTS
  4 .ARM          00000008  08003748  08003748  00013748  2**2
                  CONTENTS, ALLOC, LOAD, READONLY, DATA
  5 .preinit_array 00000000  08003750  08003750  00020074  2**0
                  CONTENTS, ALLOC, LOAD, DATA
  6 .init_array   00000004  08003750  08003750  00013750  2**2
                  CONTENTS, ALLOC, LOAD, DATA
  7 .fini_array   00000004  08003754  08003754  00013754  2**2
                  CONTENTS, ALLOC, LOAD, DATA
  8 .data         00000074  20000000  08003758  00020000  2**2
                  CONTENTS, ALLOC, LOAD, DATA
  9 .bss          000000f8  20000074  080037cc  00020074  2**2
                  ALLOC
 10 ._user_heap_stack 00000604  2000016c  080037cc  0002016c  2**0
                  ALLOC
 11 .ARM.attributes 00000028  00000000  00000000  00020074  2**0
                  CONTENTS, READONLY
 12 .debug_info   00015fa2  00000000  00000000  0002009c  2**0
                  CONTENTS, READONLY, DEBUGGING, OCTETS
 13 .debug_abbrev 00003c61  00000000  00000000  0003603e  2**0
                  CONTENTS, READONLY, DEBUGGING, OCTETS
 14 .debug_loc    00009d92  00000000  00000000  00039c9f  2**0
                  CONTENTS, READONLY, DEBUGGING, OCTETS
 15 .debug_aranges 00000a70  00000000  00000000  00043a38  2**3
                  CONTENTS, READONLY, DEBUGGING, OCTETS
 16 .debug_ranges 00001830  00000000  00000000  000444a8  2**3
                  CONTENTS, READONLY, DEBUGGING, OCTETS
 17 .debug_macro  000147ba  00000000  00000000  00045cd8  2**0
                  CONTENTS, READONLY, DEBUGGING, OCTETS
 18 .debug_line   00014adb  00000000  00000000  0005a492  2**0
                  CONTENTS, READONLY, DEBUGGING, OCTETS
 19 .debug_str    0006fd8b  00000000  00000000  0006ef6d  2**0
                  CONTENTS, READONLY, DEBUGGING, OCTETS
 20 .comment      00000053  00000000  00000000  000decf8  2**0
                  CONTENTS, READONLY
 21 .debug_frame  00001fd0  00000000  00000000  000ded4c  2**2
                  CONTENTS, READONLY, DEBUGGING, OCTETS

Disassembly of section .text:

080000c0 <__do_global_dtors_aux>:
 80000c0:	b510      	push	{r4, lr}
 80000c2:	4c06      	ldr	r4, [pc, #24]	; (80000dc <__do_global_dtors_aux+0x1c>)
 80000c4:	7823      	ldrb	r3, [r4, #0]
 80000c6:	2b00      	cmp	r3, #0
 80000c8:	d107      	bne.n	80000da <__do_global_dtors_aux+0x1a>
 80000ca:	4b05      	ldr	r3, [pc, #20]	; (80000e0 <__do_global_dtors_aux+0x20>)
 80000cc:	2b00      	cmp	r3, #0
 80000ce:	d002      	beq.n	80000d6 <__do_global_dtors_aux+0x16>
 80000d0:	4804      	ldr	r0, [pc, #16]	; (80000e4 <__do_global_dtors_aux+0x24>)
 80000d2:	e000      	b.n	80000d6 <__do_global_dtors_aux+0x16>
 80000d4:	bf00      	nop
 80000d6:	2301      	movs	r3, #1
 80000d8:	7023      	strb	r3, [r4, #0]
 80000da:	bd10      	pop	{r4, pc}
 80000dc:	20000074 	.word	0x20000074
 80000e0:	00000000 	.word	0x00000000
 80000e4:	08003698 	.word	0x08003698

080000e8 <frame_dummy>:
 80000e8:	4b04      	ldr	r3, [pc, #16]	; (80000fc <frame_dummy+0x14>)
 80000ea:	b510      	push	{r4, lr}
 80000ec:	2b00      	cmp	r3, #0
 80000ee:	d003      	beq.n	80000f8 <frame_dummy+0x10>
 80000f0:	4903      	ldr	r1, [pc, #12]	; (8000100 <frame_dummy+0x18>)
 80000f2:	4804      	ldr	r0, [pc, #16]	; (8000104 <frame_dummy+0x1c>)
 80000f4:	e000      	b.n	80000f8 <frame_dummy+0x10>
 80000f6:	bf00      	nop
 80000f8:	bd10      	pop	{r4, pc}
 80000fa:	46c0      	nop			; (mov r8, r8)
 80000fc:	00000000 	.word	0x00000000
 8000100:	20000078 	.word	0x20000078
 8000104:	08003698 	.word	0x08003698

08000108 <__gnu_thumb1_case_uqi>:
 8000108:	b402      	push	{r1}
 800010a:	4671      	mov	r1, lr
 800010c:	0849      	lsrs	r1, r1, #1
 800010e:	0049      	lsls	r1, r1, #1
 8000110:	5c09      	ldrb	r1, [r1, r0]
 8000112:	0049      	lsls	r1, r1, #1
 8000114:	448e      	add	lr, r1
 8000116:	bc02      	pop	{r1}
 8000118:	4770      	bx	lr
 800011a:	46c0      	nop			; (mov r8, r8)

0800011c <__gnu_thumb1_case_shi>:
 800011c:	b403      	push	{r0, r1}
 800011e:	4671      	mov	r1, lr
 8000120:	0849      	lsrs	r1, r1, #1
 8000122:	0040      	lsls	r0, r0, #1
 8000124:	0049      	lsls	r1, r1, #1
 8000126:	5e09      	ldrsh	r1, [r1, r0]
 8000128:	0049      	lsls	r1, r1, #1
 800012a:	448e      	add	lr, r1
 800012c:	bc03      	pop	{r0, r1}
 800012e:	4770      	bx	lr

08000130 <__udivsi3>:
 8000130:	2200      	movs	r2, #0
 8000132:	0843      	lsrs	r3, r0, #1
 8000134:	428b      	cmp	r3, r1
 8000136:	d374      	bcc.n	8000222 <__udivsi3+0xf2>
 8000138:	0903      	lsrs	r3, r0, #4
 800013a:	428b      	cmp	r3, r1
 800013c:	d35f      	bcc.n	80001fe <__udivsi3+0xce>
 800013e:	0a03      	lsrs	r3, r0, #8
 8000140:	428b      	cmp	r3, r1
 8000142:	d344      	bcc.n	80001ce <__udivsi3+0x9e>
 8000144:	0b03      	lsrs	r3, r0, #12
 8000146:	428b      	cmp	r3, r1
 8000148:	d328      	bcc.n	800019c <__udivsi3+0x6c>
 800014a:	0c03      	lsrs	r3, r0, #16
 800014c:	428b      	cmp	r3, r1
 800014e:	d30d      	bcc.n	800016c <__udivsi3+0x3c>
 8000150:	22ff      	movs	r2, #255	; 0xff
 8000152:	0209      	lsls	r1, r1, #8
 8000154:	ba12      	rev	r2, r2
 8000156:	0c03      	lsrs	r3, r0, #16
 8000158:	428b      	cmp	r3, r1
 800015a:	d302      	bcc.n	8000162 <__udivsi3+0x32>
 800015c:	1212      	asrs	r2, r2, #8
 800015e:	0209      	lsls	r1, r1, #8
 8000160:	d065      	beq.n	800022e <__udivsi3+0xfe>
 8000162:	0b03      	lsrs	r3, r0, #12
 8000164:	428b      	cmp	r3, r1
 8000166:	d319      	bcc.n	800019c <__udivsi3+0x6c>
 8000168:	e000      	b.n	800016c <__udivsi3+0x3c>
 800016a:	0a09      	lsrs	r1, r1, #8
 800016c:	0bc3      	lsrs	r3, r0, #15
 800016e:	428b      	cmp	r3, r1
 8000170:	d301      	bcc.n	8000176 <__udivsi3+0x46>
 8000172:	03cb      	lsls	r3, r1, #15
 8000174:	1ac0      	subs	r0, r0, r3
 8000176:	4152      	adcs	r2, r2
 8000178:	0b83      	lsrs	r3, r0, #14
 800017a:	428b      	cmp	r3, r1
 800017c:	d301      	bcc.n	8000182 <__udivsi3+0x52>
 800017e:	038b      	lsls	r3, r1, #14
 8000180:	1ac0      	subs	r0, r0, r3
 8000182:	4152      	adcs	r2, r2
 8000184:	0b43      	lsrs	r3, r0, #13
 8000186:	428b      	cmp	r3, r1
 8000188:	d301      	bcc.n	800018e <__udivsi3+0x5e>
 800018a:	034b      	lsls	r3, r1, #13
 800018c:	1ac0      	subs	r0, r0, r3
 800018e:	4152      	adcs	r2, r2
 8000190:	0b03      	lsrs	r3, r0, #12
 8000192:	428b      	cmp	r3, r1
 8000194:	d301      	bcc.n	800019a <__udivsi3+0x6a>
 8000196:	030b      	lsls	r3, r1, #12
 8000198:	1ac0      	subs	r0, r0, r3
 800019a:	4152      	adcs	r2, r2
 800019c:	0ac3      	lsrs	r3, r0, #11
 800019e:	428b      	cmp	r3, r1
 80001a0:	d301      	bcc.n	80001a6 <__udivsi3+0x76>
 80001a2:	02cb      	lsls	r3, r1, #11
 80001a4:	1ac0      	subs	r0, r0, r3
 80001a6:	4152      	adcs	r2, r2
 80001a8:	0a83      	lsrs	r3, r0, #10
 80001aa:	428b      	cmp	r3, r1
 80001ac:	d301      	bcc.n	80001b2 <__udivsi3+0x82>
 80001ae:	028b      	lsls	r3, r1, #10
 80001b0:	1ac0      	subs	r0, r0, r3
 80001b2:	4152      	adcs	r2, r2
 80001b4:	0a43      	lsrs	r3, r0, #9
 80001b6:	428b      	cmp	r3, r1
 80001b8:	d301      	bcc.n	80001be <__udivsi3+0x8e>
 80001ba:	024b      	lsls	r3, r1, #9
 80001bc:	1ac0      	subs	r0, r0, r3
 80001be:	4152      	adcs	r2, r2
 80001c0:	0a03      	lsrs	r3, r0, #8
 80001c2:	428b      	cmp	r3, r1
 80001c4:	d301      	bcc.n	80001ca <__udivsi3+0x9a>
 80001c6:	020b      	lsls	r3, r1, #8
 80001c8:	1ac0      	subs	r0, r0, r3
 80001ca:	4152      	adcs	r2, r2
 80001cc:	d2cd      	bcs.n	800016a <__udivsi3+0x3a>
 80001ce:	09c3      	lsrs	r3, r0, #7
 80001d0:	428b      	cmp	r3, r1
 80001d2:	d301      	bcc.n	80001d8 <__udivsi3+0xa8>
 80001d4:	01cb      	lsls	r3, r1, #7
 80001d6:	1ac0      	subs	r0, r0, r3
 80001d8:	4152      	adcs	r2, r2
 80001da:	0983      	lsrs	r3, r0, #6
 80001dc:	428b      	cmp	r3, r1
 80001de:	d301      	bcc.n	80001e4 <__udivsi3+0xb4>
 80001e0:	018b      	lsls	r3, r1, #6
 80001e2:	1ac0      	subs	r0, r0, r3
 80001e4:	4152      	adcs	r2, r2
 80001e6:	0943      	lsrs	r3, r0, #5
 80001e8:	428b      	cmp	r3, r1
 80001ea:	d301      	bcc.n	80001f0 <__udivsi3+0xc0>
 80001ec:	014b      	lsls	r3, r1, #5
 80001ee:	1ac0      	subs	r0, r0, r3
 80001f0:	4152      	adcs	r2, r2
 80001f2:	0903      	lsrs	r3, r0, #4
 80001f4:	428b      	cmp	r3, r1
 80001f6:	d301      	bcc.n	80001fc <__udivsi3+0xcc>
 80001f8:	010b      	lsls	r3, r1, #4
 80001fa:	1ac0      	subs	r0, r0, r3
 80001fc:	4152      	adcs	r2, r2
 80001fe:	08c3      	lsrs	r3, r0, #3
 8000200:	428b      	cmp	r3, r1
 8000202:	d301      	bcc.n	8000208 <__udivsi3+0xd8>
 8000204:	00cb      	lsls	r3, r1, #3
 8000206:	1ac0      	subs	r0, r0, r3
 8000208:	4152      	adcs	r2, r2
 800020a:	0883      	lsrs	r3, r0, #2
 800020c:	428b      	cmp	r3, r1
 800020e:	d301      	bcc.n	8000214 <__udivsi3+0xe4>
 8000210:	008b      	lsls	r3, r1, #2
 8000212:	1ac0      	subs	r0, r0, r3
 8000214:	4152      	adcs	r2, r2
 8000216:	0843      	lsrs	r3, r0, #1
 8000218:	428b      	cmp	r3, r1
 800021a:	d301      	bcc.n	8000220 <__udivsi3+0xf0>
 800021c:	004b      	lsls	r3, r1, #1
 800021e:	1ac0      	subs	r0, r0, r3
 8000220:	4152      	adcs	r2, r2
 8000222:	1a41      	subs	r1, r0, r1
 8000224:	d200      	bcs.n	8000228 <__udivsi3+0xf8>
 8000226:	4601      	mov	r1, r0
 8000228:	4152      	adcs	r2, r2
 800022a:	4610      	mov	r0, r2
 800022c:	4770      	bx	lr
 800022e:	e7ff      	b.n	8000230 <__udivsi3+0x100>
 8000230:	b501      	push	{r0, lr}
 8000232:	2000      	movs	r0, #0
 8000234:	f000 f8f0 	bl	8000418 <__aeabi_idiv0>
 8000238:	bd02      	pop	{r1, pc}
 800023a:	46c0      	nop			; (mov r8, r8)

0800023c <__aeabi_uidivmod>:
 800023c:	2900      	cmp	r1, #0
 800023e:	d0f7      	beq.n	8000230 <__udivsi3+0x100>
 8000240:	e776      	b.n	8000130 <__udivsi3>
 8000242:	4770      	bx	lr

08000244 <__divsi3>:
 8000244:	4603      	mov	r3, r0
 8000246:	430b      	orrs	r3, r1
 8000248:	d47f      	bmi.n	800034a <__divsi3+0x106>
 800024a:	2200      	movs	r2, #0
 800024c:	0843      	lsrs	r3, r0, #1
 800024e:	428b      	cmp	r3, r1
 8000250:	d374      	bcc.n	800033c <__divsi3+0xf8>
 8000252:	0903      	lsrs	r3, r0, #4
 8000254:	428b      	cmp	r3, r1
 8000256:	d35f      	bcc.n	8000318 <__divsi3+0xd4>
 8000258:	0a03      	lsrs	r3, r0, #8
 800025a:	428b      	cmp	r3, r1
 800025c:	d344      	bcc.n	80002e8 <__divsi3+0xa4>
 800025e:	0b03      	lsrs	r3, r0, #12
 8000260:	428b      	cmp	r3, r1
 8000262:	d328      	bcc.n	80002b6 <__divsi3+0x72>
 8000264:	0c03      	lsrs	r3, r0, #16
 8000266:	428b      	cmp	r3, r1
 8000268:	d30d      	bcc.n	8000286 <__divsi3+0x42>
 800026a:	22ff      	movs	r2, #255	; 0xff
 800026c:	0209      	lsls	r1, r1, #8
 800026e:	ba12      	rev	r2, r2
 8000270:	0c03      	lsrs	r3, r0, #16
 8000272:	428b      	cmp	r3, r1
 8000274:	d302      	bcc.n	800027c <__divsi3+0x38>
 8000276:	1212      	asrs	r2, r2, #8
 8000278:	0209      	lsls	r1, r1, #8
 800027a:	d065      	beq.n	8000348 <__divsi3+0x104>
 800027c:	0b03      	lsrs	r3, r0, #12
 800027e:	428b      	cmp	r3, r1
 8000280:	d319      	bcc.n	80002b6 <__divsi3+0x72>
 8000282:	e000      	b.n	8000286 <__divsi3+0x42>
 8000284:	0a09      	lsrs	r1, r1, #8
 8000286:	0bc3      	lsrs	r3, r0, #15
 8000288:	428b      	cmp	r3, r1
 800028a:	d301      	bcc.n	8000290 <__divsi3+0x4c>
 800028c:	03cb      	lsls	r3, r1, #15
 800028e:	1ac0      	subs	r0, r0, r3
 8000290:	4152      	adcs	r2, r2
 8000292:	0b83      	lsrs	r3, r0, #14
 8000294:	428b      	cmp	r3, r1
 8000296:	d301      	bcc.n	800029c <__divsi3+0x58>
 8000298:	038b      	lsls	r3, r1, #14
 800029a:	1ac0      	subs	r0, r0, r3
 800029c:	4152      	adcs	r2, r2
 800029e:	0b43      	lsrs	r3, r0, #13
 80002a0:	428b      	cmp	r3, r1
 80002a2:	d301      	bcc.n	80002a8 <__divsi3+0x64>
 80002a4:	034b      	lsls	r3, r1, #13
 80002a6:	1ac0      	subs	r0, r0, r3
 80002a8:	4152      	adcs	r2, r2
 80002aa:	0b03      	lsrs	r3, r0, #12
 80002ac:	428b      	cmp	r3, r1
 80002ae:	d301      	bcc.n	80002b4 <__divsi3+0x70>
 80002b0:	030b      	lsls	r3, r1, #12
 80002b2:	1ac0      	subs	r0, r0, r3
 80002b4:	4152      	adcs	r2, r2
 80002b6:	0ac3      	lsrs	r3, r0, #11
 80002b8:	428b      	cmp	r3, r1
 80002ba:	d301      	bcc.n	80002c0 <__divsi3+0x7c>
 80002bc:	02cb      	lsls	r3, r1, #11
 80002be:	1ac0      	subs	r0, r0, r3
 80002c0:	4152      	adcs	r2, r2
 80002c2:	0a83      	lsrs	r3, r0, #10
 80002c4:	428b      	cmp	r3, r1
 80002c6:	d301      	bcc.n	80002cc <__divsi3+0x88>
 80002c8:	028b      	lsls	r3, r1, #10
 80002ca:	1ac0      	subs	r0, r0, r3
 80002cc:	4152      	adcs	r2, r2
 80002ce:	0a43      	lsrs	r3, r0, #9
 80002d0:	428b      	cmp	r3, r1
 80002d2:	d301      	bcc.n	80002d8 <__divsi3+0x94>
 80002d4:	024b      	lsls	r3, r1, #9
 80002d6:	1ac0      	subs	r0, r0, r3
 80002d8:	4152      	adcs	r2, r2
 80002da:	0a03      	lsrs	r3, r0, #8
 80002dc:	428b      	cmp	r3, r1
 80002de:	d301      	bcc.n	80002e4 <__divsi3+0xa0>
 80002e0:	020b      	lsls	r3, r1, #8
 80002e2:	1ac0      	subs	r0, r0, r3
 80002e4:	4152      	adcs	r2, r2
 80002e6:	d2cd      	bcs.n	8000284 <__divsi3+0x40>
 80002e8:	09c3      	lsrs	r3, r0, #7
 80002ea:	428b      	cmp	r3, r1
 80002ec:	d301      	bcc.n	80002f2 <__divsi3+0xae>
 80002ee:	01cb      	lsls	r3, r1, #7
 80002f0:	1ac0      	subs	r0, r0, r3
 80002f2:	4152      	adcs	r2, r2
 80002f4:	0983      	lsrs	r3, r0, #6
 80002f6:	428b      	cmp	r3, r1
 80002f8:	d301      	bcc.n	80002fe <__divsi3+0xba>
 80002fa:	018b      	lsls	r3, r1, #6
 80002fc:	1ac0      	subs	r0, r0, r3
 80002fe:	4152      	adcs	r2, r2
 8000300:	0943      	lsrs	r3, r0, #5
 8000302:	428b      	cmp	r3, r1
 8000304:	d301      	bcc.n	800030a <__divsi3+0xc6>
 8000306:	014b      	lsls	r3, r1, #5
 8000308:	1ac0      	subs	r0, r0, r3
 800030a:	4152      	adcs	r2, r2
 800030c:	0903      	lsrs	r3, r0, #4
 800030e:	428b      	cmp	r3, r1
 8000310:	d301      	bcc.n	8000316 <__divsi3+0xd2>
 8000312:	010b      	lsls	r3, r1, #4
 8000314:	1ac0      	subs	r0, r0, r3
 8000316:	4152      	adcs	r2, r2
 8000318:	08c3      	lsrs	r3, r0, #3
 800031a:	428b      	cmp	r3, r1
 800031c:	d301      	bcc.n	8000322 <__divsi3+0xde>
 800031e:	00cb      	lsls	r3, r1, #3
 8000320:	1ac0      	subs	r0, r0, r3
 8000322:	4152      	adcs	r2, r2
 8000324:	0883      	lsrs	r3, r0, #2
 8000326:	428b      	cmp	r3, r1
 8000328:	d301      	bcc.n	800032e <__divsi3+0xea>
 800032a:	008b      	lsls	r3, r1, #2
 800032c:	1ac0      	subs	r0, r0, r3
 800032e:	4152      	adcs	r2, r2
 8000330:	0843      	lsrs	r3, r0, #1
 8000332:	428b      	cmp	r3, r1
 8000334:	d301      	bcc.n	800033a <__divsi3+0xf6>
 8000336:	004b      	lsls	r3, r1, #1
 8000338:	1ac0      	subs	r0, r0, r3
 800033a:	4152      	adcs	r2, r2
 800033c:	1a41      	subs	r1, r0, r1
 800033e:	d200      	bcs.n	8000342 <__divsi3+0xfe>
 8000340:	4601      	mov	r1, r0
 8000342:	4152      	adcs	r2, r2
 8000344:	4610      	mov	r0, r2
 8000346:	4770      	bx	lr
 8000348:	e05d      	b.n	8000406 <__divsi3+0x1c2>
 800034a:	0fca      	lsrs	r2, r1, #31
 800034c:	d000      	beq.n	8000350 <__divsi3+0x10c>
 800034e:	4249      	negs	r1, r1
 8000350:	1003      	asrs	r3, r0, #32
 8000352:	d300      	bcc.n	8000356 <__divsi3+0x112>
 8000354:	4240      	negs	r0, r0
 8000356:	4053      	eors	r3, r2
 8000358:	2200      	movs	r2, #0
 800035a:	469c      	mov	ip, r3
 800035c:	0903      	lsrs	r3, r0, #4
 800035e:	428b      	cmp	r3, r1
 8000360:	d32d      	bcc.n	80003be <__divsi3+0x17a>
 8000362:	0a03      	lsrs	r3, r0, #8
 8000364:	428b      	cmp	r3, r1
 8000366:	d312      	bcc.n	800038e <__divsi3+0x14a>
 8000368:	22fc      	movs	r2, #252	; 0xfc
 800036a:	0189      	lsls	r1, r1, #6
 800036c:	ba12      	rev	r2, r2
 800036e:	0a03      	lsrs	r3, r0, #8
 8000370:	428b      	cmp	r3, r1
 8000372:	d30c      	bcc.n	800038e <__divsi3+0x14a>
 8000374:	0189      	lsls	r1, r1, #6
 8000376:	1192      	asrs	r2, r2, #6
 8000378:	428b      	cmp	r3, r1
 800037a:	d308      	bcc.n	800038e <__divsi3+0x14a>
 800037c:	0189      	lsls	r1, r1, #6
 800037e:	1192      	asrs	r2, r2, #6
 8000380:	428b      	cmp	r3, r1
 8000382:	d304      	bcc.n	800038e <__divsi3+0x14a>
 8000384:	0189      	lsls	r1, r1, #6
 8000386:	d03a      	beq.n	80003fe <__divsi3+0x1ba>
 8000388:	1192      	asrs	r2, r2, #6
 800038a:	e000      	b.n	800038e <__divsi3+0x14a>
 800038c:	0989      	lsrs	r1, r1, #6
 800038e:	09c3      	lsrs	r3, r0, #7
 8000390:	428b      	cmp	r3, r1
 8000392:	d301      	bcc.n	8000398 <__divsi3+0x154>
 8000394:	01cb      	lsls	r3, r1, #7
 8000396:	1ac0      	subs	r0, r0, r3
 8000398:	4152      	adcs	r2, r2
 800039a:	0983      	lsrs	r3, r0, #6
 800039c:	428b      	cmp	r3, r1
 800039e:	d301      	bcc.n	80003a4 <__divsi3+0x160>
 80003a0:	018b      	lsls	r3, r1, #6
 80003a2:	1ac0      	subs	r0, r0, r3
 80003a4:	4152      	adcs	r2, r2
 80003a6:	0943      	lsrs	r3, r0, #5
 80003a8:	428b      	cmp	r3, r1
 80003aa:	d301      	bcc.n	80003b0 <__divsi3+0x16c>
 80003ac:	014b      	lsls	r3, r1, #5
 80003ae:	1ac0      	subs	r0, r0, r3
 80003b0:	4152      	adcs	r2, r2
 80003b2:	0903      	lsrs	r3, r0, #4
 80003b4:	428b      	cmp	r3, r1
 80003b6:	d301      	bcc.n	80003bc <__divsi3+0x178>
 80003b8:	010b      	lsls	r3, r1, #4
 80003ba:	1ac0      	subs	r0, r0, r3
 80003bc:	4152      	adcs	r2, r2
 80003be:	08c3      	lsrs	r3, r0, #3
 80003c0:	428b      	cmp	r3, r1
 80003c2:	d301      	bcc.n	80003c8 <__divsi3+0x184>
 80003c4:	00cb      	lsls	r3, r1, #3
 80003c6:	1ac0      	subs	r0, r0, r3
 80003c8:	4152      	adcs	r2, r2
 80003ca:	0883      	lsrs	r3, r0, #2
 80003cc:	428b      	cmp	r3, r1
 80003ce:	d301      	bcc.n	80003d4 <__divsi3+0x190>
 80003d0:	008b      	lsls	r3, r1, #2
 80003d2:	1ac0      	subs	r0, r0, r3
 80003d4:	4152      	adcs	r2, r2
 80003d6:	d2d9      	bcs.n	800038c <__divsi3+0x148>
 80003d8:	0843      	lsrs	r3, r0, #1
 80003da:	428b      	cmp	r3, r1
 80003dc:	d301      	bcc.n	80003e2 <__divsi3+0x19e>
 80003de:	004b      	lsls	r3, r1, #1
 80003e0:	1ac0      	subs	r0, r0, r3
 80003e2:	4152      	adcs	r2, r2
 80003e4:	1a41      	subs	r1, r0, r1
 80003e6:	d200      	bcs.n	80003ea <__divsi3+0x1a6>
 80003e8:	4601      	mov	r1, r0
 80003ea:	4663      	mov	r3, ip
 80003ec:	4152      	adcs	r2, r2
 80003ee:	105b      	asrs	r3, r3, #1
 80003f0:	4610      	mov	r0, r2
 80003f2:	d301      	bcc.n	80003f8 <__divsi3+0x1b4>
 80003f4:	4240      	negs	r0, r0
 80003f6:	2b00      	cmp	r3, #0
 80003f8:	d500      	bpl.n	80003fc <__divsi3+0x1b8>
 80003fa:	4249      	negs	r1, r1
 80003fc:	4770      	bx	lr
 80003fe:	4663      	mov	r3, ip
 8000400:	105b      	asrs	r3, r3, #1
 8000402:	d300      	bcc.n	8000406 <__divsi3+0x1c2>
 8000404:	4240      	negs	r0, r0
 8000406:	b501      	push	{r0, lr}
 8000408:	2000      	movs	r0, #0
 800040a:	f000 f805 	bl	8000418 <__aeabi_idiv0>
 800040e:	bd02      	pop	{r1, pc}

08000410 <__aeabi_idivmod>:
 8000410:	2900      	cmp	r1, #0
 8000412:	d0f8      	beq.n	8000406 <__divsi3+0x1c2>
 8000414:	e716      	b.n	8000244 <__divsi3>
 8000416:	4770      	bx	lr

08000418 <__aeabi_idiv0>:
 8000418:	4770      	bx	lr
 800041a:	46c0      	nop			; (mov r8, r8)

0800041c <__aeabi_uldivmod>:
 800041c:	2b00      	cmp	r3, #0
 800041e:	d111      	bne.n	8000444 <__aeabi_uldivmod+0x28>
 8000420:	2a00      	cmp	r2, #0
 8000422:	d10f      	bne.n	8000444 <__aeabi_uldivmod+0x28>
 8000424:	2900      	cmp	r1, #0
 8000426:	d100      	bne.n	800042a <__aeabi_uldivmod+0xe>
 8000428:	2800      	cmp	r0, #0
 800042a:	d002      	beq.n	8000432 <__aeabi_uldivmod+0x16>
 800042c:	2100      	movs	r1, #0
 800042e:	43c9      	mvns	r1, r1
 8000430:	1c08      	adds	r0, r1, #0
 8000432:	b407      	push	{r0, r1, r2}
 8000434:	4802      	ldr	r0, [pc, #8]	; (8000440 <__aeabi_uldivmod+0x24>)
 8000436:	a102      	add	r1, pc, #8	; (adr r1, 8000440 <__aeabi_uldivmod+0x24>)
 8000438:	1840      	adds	r0, r0, r1
 800043a:	9002      	str	r0, [sp, #8]
 800043c:	bd03      	pop	{r0, r1, pc}
 800043e:	46c0      	nop			; (mov r8, r8)
 8000440:	ffffffd9 	.word	0xffffffd9
 8000444:	b403      	push	{r0, r1}
 8000446:	4668      	mov	r0, sp
 8000448:	b501      	push	{r0, lr}
 800044a:	9802      	ldr	r0, [sp, #8]
 800044c:	f000 f82e 	bl	80004ac <__udivmoddi4>
 8000450:	9b01      	ldr	r3, [sp, #4]
 8000452:	469e      	mov	lr, r3
 8000454:	b002      	add	sp, #8
 8000456:	bc0c      	pop	{r2, r3}
 8000458:	4770      	bx	lr
 800045a:	46c0      	nop			; (mov r8, r8)

0800045c <__aeabi_lmul>:
 800045c:	b5f0      	push	{r4, r5, r6, r7, lr}
 800045e:	0415      	lsls	r5, r2, #16
 8000460:	0c2d      	lsrs	r5, r5, #16
 8000462:	000f      	movs	r7, r1
 8000464:	0001      	movs	r1, r0
 8000466:	002e      	movs	r6, r5
 8000468:	46c6      	mov	lr, r8
 800046a:	4684      	mov	ip, r0
 800046c:	0400      	lsls	r0, r0, #16
 800046e:	0c14      	lsrs	r4, r2, #16
 8000470:	0c00      	lsrs	r0, r0, #16
 8000472:	0c09      	lsrs	r1, r1, #16
 8000474:	4346      	muls	r6, r0
 8000476:	434d      	muls	r5, r1
 8000478:	4360      	muls	r0, r4
 800047a:	4361      	muls	r1, r4
 800047c:	1940      	adds	r0, r0, r5
 800047e:	0c34      	lsrs	r4, r6, #16
 8000480:	1824      	adds	r4, r4, r0
 8000482:	b500      	push	{lr}
 8000484:	42a5      	cmp	r5, r4
 8000486:	d903      	bls.n	8000490 <__aeabi_lmul+0x34>
 8000488:	2080      	movs	r0, #128	; 0x80
 800048a:	0240      	lsls	r0, r0, #9
 800048c:	4680      	mov	r8, r0
 800048e:	4441      	add	r1, r8
 8000490:	0c25      	lsrs	r5, r4, #16
 8000492:	186d      	adds	r5, r5, r1
 8000494:	4661      	mov	r1, ip
 8000496:	4359      	muls	r1, r3
 8000498:	437a      	muls	r2, r7
 800049a:	0430      	lsls	r0, r6, #16
 800049c:	1949      	adds	r1, r1, r5
 800049e:	0424      	lsls	r4, r4, #16
 80004a0:	0c00      	lsrs	r0, r0, #16
 80004a2:	1820      	adds	r0, r4, r0
 80004a4:	1889      	adds	r1, r1, r2
 80004a6:	bc80      	pop	{r7}
 80004a8:	46b8      	mov	r8, r7
 80004aa:	bdf0      	pop	{r4, r5, r6, r7, pc}

080004ac <__udivmoddi4>:
 80004ac:	b5f0      	push	{r4, r5, r6, r7, lr}
 80004ae:	4657      	mov	r7, sl
 80004b0:	464e      	mov	r6, r9
 80004b2:	4645      	mov	r5, r8
 80004b4:	46de      	mov	lr, fp
 80004b6:	b5e0      	push	{r5, r6, r7, lr}
 80004b8:	0004      	movs	r4, r0
 80004ba:	000d      	movs	r5, r1
 80004bc:	4692      	mov	sl, r2
 80004be:	4699      	mov	r9, r3
 80004c0:	b083      	sub	sp, #12
 80004c2:	428b      	cmp	r3, r1
 80004c4:	d830      	bhi.n	8000528 <__udivmoddi4+0x7c>
 80004c6:	d02d      	beq.n	8000524 <__udivmoddi4+0x78>
 80004c8:	4649      	mov	r1, r9
 80004ca:	4650      	mov	r0, sl
 80004cc:	f000 f8d8 	bl	8000680 <__clzdi2>
 80004d0:	0029      	movs	r1, r5
 80004d2:	0006      	movs	r6, r0
 80004d4:	0020      	movs	r0, r4
 80004d6:	f000 f8d3 	bl	8000680 <__clzdi2>
 80004da:	1a33      	subs	r3, r6, r0
 80004dc:	4698      	mov	r8, r3
 80004de:	3b20      	subs	r3, #32
 80004e0:	469b      	mov	fp, r3
 80004e2:	d433      	bmi.n	800054c <__udivmoddi4+0xa0>
 80004e4:	465a      	mov	r2, fp
 80004e6:	4653      	mov	r3, sl
 80004e8:	4093      	lsls	r3, r2
 80004ea:	4642      	mov	r2, r8
 80004ec:	001f      	movs	r7, r3
 80004ee:	4653      	mov	r3, sl
 80004f0:	4093      	lsls	r3, r2
 80004f2:	001e      	movs	r6, r3
 80004f4:	42af      	cmp	r7, r5
 80004f6:	d83a      	bhi.n	800056e <__udivmoddi4+0xc2>
 80004f8:	42af      	cmp	r7, r5
 80004fa:	d100      	bne.n	80004fe <__udivmoddi4+0x52>
 80004fc:	e078      	b.n	80005f0 <__udivmoddi4+0x144>
 80004fe:	465b      	mov	r3, fp
 8000500:	1ba4      	subs	r4, r4, r6
 8000502:	41bd      	sbcs	r5, r7
 8000504:	2b00      	cmp	r3, #0
 8000506:	da00      	bge.n	800050a <__udivmoddi4+0x5e>
 8000508:	e075      	b.n	80005f6 <__udivmoddi4+0x14a>
 800050a:	2200      	movs	r2, #0
 800050c:	2300      	movs	r3, #0
 800050e:	9200      	str	r2, [sp, #0]
 8000510:	9301      	str	r3, [sp, #4]
 8000512:	2301      	movs	r3, #1
 8000514:	465a      	mov	r2, fp
 8000516:	4093      	lsls	r3, r2
 8000518:	9301      	str	r3, [sp, #4]
 800051a:	2301      	movs	r3, #1
 800051c:	4642      	mov	r2, r8
 800051e:	4093      	lsls	r3, r2
 8000520:	9300      	str	r3, [sp, #0]
 8000522:	e028      	b.n	8000576 <__udivmoddi4+0xca>
 8000524:	4282      	cmp	r2, r0
 8000526:	d9cf      	bls.n	80004c8 <__udivmoddi4+0x1c>
 8000528:	2200      	movs	r2, #0
 800052a:	2300      	movs	r3, #0
 800052c:	9200      	str	r2, [sp, #0]
 800052e:	9301      	str	r3, [sp, #4]
 8000530:	9b0c      	ldr	r3, [sp, #48]	; 0x30
 8000532:	2b00      	cmp	r3, #0
 8000534:	d001      	beq.n	800053a <__udivmoddi4+0x8e>
 8000536:	601c      	str	r4, [r3, #0]
 8000538:	605d      	str	r5, [r3, #4]
 800053a:	9800      	ldr	r0, [sp, #0]
 800053c:	9901      	ldr	r1, [sp, #4]
 800053e:	b003      	add	sp, #12
 8000540:	bcf0      	pop	{r4, r5, r6, r7}
 8000542:	46bb      	mov	fp, r7
 8000544:	46b2      	mov	sl, r6
 8000546:	46a9      	mov	r9, r5
 8000548:	46a0      	mov	r8, r4
 800054a:	bdf0      	pop	{r4, r5, r6, r7, pc}
 800054c:	4642      	mov	r2, r8
 800054e:	2320      	movs	r3, #32
 8000550:	1a9b      	subs	r3, r3, r2
 8000552:	4652      	mov	r2, sl
 8000554:	40da      	lsrs	r2, r3
 8000556:	4641      	mov	r1, r8
 8000558:	0013      	movs	r3, r2
 800055a:	464a      	mov	r2, r9
 800055c:	408a      	lsls	r2, r1
 800055e:	0017      	movs	r7, r2
 8000560:	4642      	mov	r2, r8
 8000562:	431f      	orrs	r7, r3
 8000564:	4653      	mov	r3, sl
 8000566:	4093      	lsls	r3, r2
 8000568:	001e      	movs	r6, r3
 800056a:	42af      	cmp	r7, r5
 800056c:	d9c4      	bls.n	80004f8 <__udivmoddi4+0x4c>
 800056e:	2200      	movs	r2, #0
 8000570:	2300      	movs	r3, #0
 8000572:	9200      	str	r2, [sp, #0]
 8000574:	9301      	str	r3, [sp, #4]
 8000576:	4643      	mov	r3, r8
 8000578:	2b00      	cmp	r3, #0
 800057a:	d0d9      	beq.n	8000530 <__udivmoddi4+0x84>
 800057c:	07fb      	lsls	r3, r7, #31
 800057e:	0872      	lsrs	r2, r6, #1
 8000580:	431a      	orrs	r2, r3
 8000582:	4646      	mov	r6, r8
 8000584:	087b      	lsrs	r3, r7, #1
 8000586:	e00e      	b.n	80005a6 <__udivmoddi4+0xfa>
 8000588:	42ab      	cmp	r3, r5
 800058a:	d101      	bne.n	8000590 <__udivmoddi4+0xe4>
 800058c:	42a2      	cmp	r2, r4
 800058e:	d80c      	bhi.n	80005aa <__udivmoddi4+0xfe>
 8000590:	1aa4      	subs	r4, r4, r2
 8000592:	419d      	sbcs	r5, r3
 8000594:	2001      	movs	r0, #1
 8000596:	1924      	adds	r4, r4, r4
 8000598:	416d      	adcs	r5, r5
 800059a:	2100      	movs	r1, #0
 800059c:	3e01      	subs	r6, #1
 800059e:	1824      	adds	r4, r4, r0
 80005a0:	414d      	adcs	r5, r1
 80005a2:	2e00      	cmp	r6, #0
 80005a4:	d006      	beq.n	80005b4 <__udivmoddi4+0x108>
 80005a6:	42ab      	cmp	r3, r5
 80005a8:	d9ee      	bls.n	8000588 <__udivmoddi4+0xdc>
 80005aa:	3e01      	subs	r6, #1
 80005ac:	1924      	adds	r4, r4, r4
 80005ae:	416d      	adcs	r5, r5
 80005b0:	2e00      	cmp	r6, #0
 80005b2:	d1f8      	bne.n	80005a6 <__udivmoddi4+0xfa>
 80005b4:	9800      	ldr	r0, [sp, #0]
 80005b6:	9901      	ldr	r1, [sp, #4]
 80005b8:	465b      	mov	r3, fp
 80005ba:	1900      	adds	r0, r0, r4
 80005bc:	4169      	adcs	r1, r5
 80005be:	2b00      	cmp	r3, #0
 80005c0:	db24      	blt.n	800060c <__udivmoddi4+0x160>
 80005c2:	002b      	movs	r3, r5
 80005c4:	465a      	mov	r2, fp
 80005c6:	4644      	mov	r4, r8
 80005c8:	40d3      	lsrs	r3, r2
 80005ca:	002a      	movs	r2, r5
 80005cc:	40e2      	lsrs	r2, r4
 80005ce:	001c      	movs	r4, r3
 80005d0:	465b      	mov	r3, fp
 80005d2:	0015      	movs	r5, r2
 80005d4:	2b00      	cmp	r3, #0
 80005d6:	db2a      	blt.n	800062e <__udivmoddi4+0x182>
 80005d8:	0026      	movs	r6, r4
 80005da:	409e      	lsls	r6, r3
 80005dc:	0033      	movs	r3, r6
 80005de:	0026      	movs	r6, r4
 80005e0:	4647      	mov	r7, r8
 80005e2:	40be      	lsls	r6, r7
 80005e4:	0032      	movs	r2, r6
 80005e6:	1a80      	subs	r0, r0, r2
 80005e8:	4199      	sbcs	r1, r3
 80005ea:	9000      	str	r0, [sp, #0]
 80005ec:	9101      	str	r1, [sp, #4]
 80005ee:	e79f      	b.n	8000530 <__udivmoddi4+0x84>
 80005f0:	42a3      	cmp	r3, r4
 80005f2:	d8bc      	bhi.n	800056e <__udivmoddi4+0xc2>
 80005f4:	e783      	b.n	80004fe <__udivmoddi4+0x52>
 80005f6:	4642      	mov	r2, r8
 80005f8:	2320      	movs	r3, #32
 80005fa:	2100      	movs	r1, #0
 80005fc:	1a9b      	subs	r3, r3, r2
 80005fe:	2200      	movs	r2, #0
 8000600:	9100      	str	r1, [sp, #0]
 8000602:	9201      	str	r2, [sp, #4]
 8000604:	2201      	movs	r2, #1
 8000606:	40da      	lsrs	r2, r3
 8000608:	9201      	str	r2, [sp, #4]
 800060a:	e786      	b.n	800051a <__udivmoddi4+0x6e>
 800060c:	4642      	mov	r2, r8
 800060e:	2320      	movs	r3, #32
 8000610:	1a9b      	subs	r3, r3, r2
 8000612:	002a      	movs	r2, r5
 8000614:	4646      	mov	r6, r8
 8000616:	409a      	lsls	r2, r3
 8000618:	0023      	movs	r3, r4
 800061a:	40f3      	lsrs	r3, r6
 800061c:	4644      	mov	r4, r8
 800061e:	4313      	orrs	r3, r2
 8000620:	002a      	movs	r2, r5
 8000622:	40e2      	lsrs	r2, r4
 8000624:	001c      	movs	r4, r3
 8000626:	465b      	mov	r3, fp
 8000628:	0015      	movs	r5, r2
 800062a:	2b00      	cmp	r3, #0
 800062c:	dad4      	bge.n	80005d8 <__udivmoddi4+0x12c>
 800062e:	4642      	mov	r2, r8
 8000630:	002f      	movs	r7, r5
 8000632:	2320      	movs	r3, #32
 8000634:	0026      	movs	r6, r4
 8000636:	4097      	lsls	r7, r2
 8000638:	1a9b      	subs	r3, r3, r2
 800063a:	40de      	lsrs	r6, r3
 800063c:	003b      	movs	r3, r7
 800063e:	4333      	orrs	r3, r6
 8000640:	e7cd      	b.n	80005de <__udivmoddi4+0x132>
 8000642:	46c0      	nop			; (mov r8, r8)

08000644 <__clzsi2>:
 8000644:	211c      	movs	r1, #28
 8000646:	2301      	movs	r3, #1
 8000648:	041b      	lsls	r3, r3, #16
 800064a:	4298      	cmp	r0, r3
 800064c:	d301      	bcc.n	8000652 <__clzsi2+0xe>
 800064e:	0c00      	lsrs	r0, r0, #16
 8000650:	3910      	subs	r1, #16
 8000652:	0a1b      	lsrs	r3, r3, #8
 8000654:	4298      	cmp	r0, r3
 8000656:	d301      	bcc.n	800065c <__clzsi2+0x18>
 8000658:	0a00      	lsrs	r0, r0, #8
 800065a:	3908      	subs	r1, #8
 800065c:	091b      	lsrs	r3, r3, #4
 800065e:	4298      	cmp	r0, r3
 8000660:	d301      	bcc.n	8000666 <__clzsi2+0x22>
 8000662:	0900      	lsrs	r0, r0, #4
 8000664:	3904      	subs	r1, #4
 8000666:	a202      	add	r2, pc, #8	; (adr r2, 8000670 <__clzsi2+0x2c>)
 8000668:	5c10      	ldrb	r0, [r2, r0]
 800066a:	1840      	adds	r0, r0, r1
 800066c:	4770      	bx	lr
 800066e:	46c0      	nop			; (mov r8, r8)
 8000670:	02020304 	.word	0x02020304
 8000674:	01010101 	.word	0x01010101
	...

08000680 <__clzdi2>:
 8000680:	b510      	push	{r4, lr}
 8000682:	2900      	cmp	r1, #0
 8000684:	d103      	bne.n	800068e <__clzdi2+0xe>
 8000686:	f7ff ffdd 	bl	8000644 <__clzsi2>
 800068a:	3020      	adds	r0, #32
 800068c:	e002      	b.n	8000694 <__clzdi2+0x14>
 800068e:	1c08      	adds	r0, r1, #0
 8000690:	f7ff ffd8 	bl	8000644 <__clzsi2>
 8000694:	bd10      	pop	{r4, pc}
 8000696:	46c0      	nop			; (mov r8, r8)

08000698 <sendInternal.constprop.0>:
#endif /* USE_BUSY_FLAG */
}
#endif

#ifdef USE_I2C_BUS
static HAL_StatusTypeDef sendInternal(uint8_t lcd_addr, uint8_t data, uint8_t flags)
 8000698:	b57f      	push	{r0, r1, r2, r3, r4, r5, r6, lr}
 800069a:	0005      	movs	r5, r0
 800069c:	000e      	movs	r6, r1
{
    HAL_StatusTypeDef res;
    for(;;)
    {
        res = HAL_I2C_IsDeviceReady(&LCD_I2C_PORT, lcd_addr, 1, HAL_MAX_DELAY);
 800069e:	2301      	movs	r3, #1
 80006a0:	4c15      	ldr	r4, [pc, #84]	; (80006f8 <sendInternal.constprop.0+0x60>)
 80006a2:	2201      	movs	r2, #1
 80006a4:	214e      	movs	r1, #78	; 0x4e
 80006a6:	0020      	movs	r0, r4
 80006a8:	425b      	negs	r3, r3
 80006aa:	f001 fcbb 	bl	8002024 <HAL_I2C_IsDeviceReady>
        if(res == HAL_OK)
 80006ae:	2800      	cmp	r0, #0
 80006b0:	d1f5      	bne.n	800069e <sendInternal.constprop.0+0x6>

    uint8_t up = data & 0xF0;
    uint8_t lo = (data << 4) & 0xF0;

    uint8_t data_arr[4];
    data_arr[0] = up|flags|current_status_backlight|PIN_EN;
 80006b2:	4b12      	ldr	r3, [pc, #72]	; (80006fc <sendInternal.constprop.0+0x64>)
    uint8_t up = data & 0xF0;
 80006b4:	0028      	movs	r0, r5
 80006b6:	7819      	ldrb	r1, [r3, #0]
 80006b8:	230f      	movs	r3, #15
 80006ba:	4398      	bics	r0, r3
    data_arr[0] = up|flags|current_status_backlight|PIN_EN;
 80006bc:	3b0b      	subs	r3, #11
 80006be:	4331      	orrs	r1, r6
 80006c0:	001e      	movs	r6, r3
    uint8_t lo = (data << 4) & 0xF0;
 80006c2:	409d      	lsls	r5, r3
    data_arr[0] = up|flags|current_status_backlight|PIN_EN;
 80006c4:	aa03      	add	r2, sp, #12
 80006c6:	4308      	orrs	r0, r1
    data_arr[1] = up|flags|current_status_backlight;
 80006c8:	7050      	strb	r0, [r2, #1]
    data_arr[0] = up|flags|current_status_backlight|PIN_EN;
 80006ca:	4306      	orrs	r6, r0
    data_arr[2] = lo|flags|current_status_backlight|PIN_EN;
 80006cc:	0018      	movs	r0, r3
 80006ce:	4329      	orrs	r1, r5
 80006d0:	b2c9      	uxtb	r1, r1
    data_arr[3] = lo|flags|current_status_backlight;
 80006d2:	70d1      	strb	r1, [r2, #3]
    data_arr[2] = lo|flags|current_status_backlight|PIN_EN;
 80006d4:	4308      	orrs	r0, r1

    res = HAL_I2C_Master_Transmit(&LCD_I2C_PORT, lcd_addr, data_arr, sizeof(data_arr), HAL_MAX_DELAY);
 80006d6:	2101      	movs	r1, #1
 80006d8:	4249      	negs	r1, r1
    data_arr[2] = lo|flags|current_status_backlight|PIN_EN;
 80006da:	7090      	strb	r0, [r2, #2]
    data_arr[0] = up|flags|current_status_backlight|PIN_EN;
 80006dc:	7016      	strb	r6, [r2, #0]
    res = HAL_I2C_Master_Transmit(&LCD_I2C_PORT, lcd_addr, data_arr, sizeof(data_arr), HAL_MAX_DELAY);
 80006de:	0020      	movs	r0, r4
 80006e0:	9100      	str	r1, [sp, #0]
 80006e2:	314f      	adds	r1, #79	; 0x4f
 80006e4:	f001 fc0c 	bl	8001f00 <HAL_I2C_Master_Transmit>
 80006e8:	0004      	movs	r4, r0
    HAL_Delay(BUSY_CYCLE_TIME);
 80006ea:	2005      	movs	r0, #5
 80006ec:	f001 f8e4 	bl	80018b8 <HAL_Delay>
    return res;
}
 80006f0:	0020      	movs	r0, r4
 80006f2:	b004      	add	sp, #16
 80006f4:	bd70      	pop	{r4, r5, r6, pc}
 80006f6:	46c0      	nop			; (mov r8, r8)
 80006f8:	200000f4 	.word	0x200000f4
 80006fc:	20000090 	.word	0x20000090

08000700 <cursorShift.part.0>:
/*!	\details	"Cursor shift" shifts the cursor position to the right or left,
 * 				without writing or reading display data.
 * 				This function is used to correct or search the display.
 * 				In a 2-line display, the cursor moves to the second line
 * 				when it passes the 40th digit of the first line. */
void cursorShift(uint8_t direction)
 8000700:	b510      	push	{r4, lr}

	switch (direction)
	{
		/* To left */
		case LEFT  :
			sendInternal(LCD_I2C_ADDRESS_8B, 0x10u, 0);
 8000702:	2100      	movs	r1, #0
 8000704:	2010      	movs	r0, #16
 8000706:	f7ff ffc7 	bl	8000698 <sendInternal.constprop.0>
		default:
			/* Ignore this command */
			break;
	}
#endif
}
 800070a:	bd10      	pop	{r4, pc}

0800070c <lcdClrScr>:
{
 800070c:	b510      	push	{r4, lr}
	sendInternal(LCD_I2C_ADDRESS_8B, 0x01u, 0);
 800070e:	2100      	movs	r1, #0
 8000710:	2001      	movs	r0, #1
 8000712:	f7ff ffc1 	bl	8000698 <sendInternal.constprop.0>
}
 8000716:	bd10      	pop	{r4, pc}

08000718 <lcdReturn>:
{
 8000718:	b510      	push	{r4, lr}
	sendInternal(LCD_I2C_ADDRESS_8B, 0x02u, 0);
 800071a:	2100      	movs	r1, #0
 800071c:	2002      	movs	r0, #2
 800071e:	f7ff ffbb 	bl	8000698 <sendInternal.constprop.0>
}
 8000722:	bd10      	pop	{r4, pc}

08000724 <cursorShift>:
{
 8000724:	b510      	push	{r4, lr}
	switch (direction)
 8000726:	283c      	cmp	r0, #60	; 0x3c
 8000728:	d002      	beq.n	8000730 <cursorShift+0xc>
 800072a:	283e      	cmp	r0, #62	; 0x3e
 800072c:	d003      	beq.n	8000736 <cursorShift+0x12>
}
 800072e:	bd10      	pop	{r4, pc}
 8000730:	f7ff ffe6 	bl	8000700 <cursorShift.part.0>
 8000734:	e7fb      	b.n	800072e <cursorShift+0xa>
			sendInternal(LCD_I2C_ADDRESS_8B, 0x14u, 0);
 8000736:	2100      	movs	r1, #0
 8000738:	2014      	movs	r0, #20
 800073a:	f7ff ffad 	bl	8000698 <sendInternal.constprop.0>
}
 800073e:	e7f6      	b.n	800072e <cursorShift+0xa>

08000740 <lcdGoto>:
/*!	\details	Go to the specified (DDRAM/CGRAM) memory address.*/
void lcdGoto(uint8_t line, uint8_t address)
{
	/* Send a command to LCD. */
#ifdef USE_I2C_BUS
	switch (line)
 8000740:	3801      	subs	r0, #1
{
 8000742:	b510      	push	{r4, lr}
 8000744:	2804      	cmp	r0, #4
 8000746:	d809      	bhi.n	800075c <lcdGoto+0x1c>
 8000748:	f7ff fcde 	bl	8000108 <__gnu_thumb1_case_uqi>
 800074c:	0d0b0903 	.word	0x0d0b0903
 8000750:	0f          	.byte	0x0f
 8000751:	00          	.byte	0x00
	{
		/* Set DDRAM address. */
		case LCD_1st_LINE: sendInternal(LCD_I2C_ADDRESS_8B, 0x80u | START_ADDRESS_1st_LINE | address, 0); break;
 8000752:	2080      	movs	r0, #128	; 0x80
		case LCD_2nd_LINE: sendInternal(LCD_I2C_ADDRESS_8B, 0x80u | START_ADDRESS_2nd_LINE | address, 0); break;
		case LCD_3rd_LINE: sendInternal(LCD_I2C_ADDRESS_8B, 0x80u | START_ADDRESS_3rd_LINE | address, 0); break;
		case LCD_4th_LINE: sendInternal(LCD_I2C_ADDRESS_8B, 0x80u | START_ADDRESS_4th_LINE | address, 0); break;

		/* Set CGRAM address. */
		case CGRAM : sendInternal(LCD_I2C_ADDRESS_8B, 0x40u | address, 0); break;
 8000754:	4308      	orrs	r0, r1
 8000756:	2100      	movs	r1, #0
 8000758:	f7ff ff9e 	bl	8000698 <sendInternal.constprop.0>
		default:
			/* Ignore this command */
			break;
	}
#endif
}
 800075c:	bd10      	pop	{r4, pc}
		case LCD_2nd_LINE: sendInternal(LCD_I2C_ADDRESS_8B, 0x80u | START_ADDRESS_2nd_LINE | address, 0); break;
 800075e:	20c0      	movs	r0, #192	; 0xc0
 8000760:	e7f8      	b.n	8000754 <lcdGoto+0x14>
		case LCD_3rd_LINE: sendInternal(LCD_I2C_ADDRESS_8B, 0x80u | START_ADDRESS_3rd_LINE | address, 0); break;
 8000762:	2090      	movs	r0, #144	; 0x90
 8000764:	e7f6      	b.n	8000754 <lcdGoto+0x14>
		case LCD_4th_LINE: sendInternal(LCD_I2C_ADDRESS_8B, 0x80u | START_ADDRESS_4th_LINE | address, 0); break;
 8000766:	20d0      	movs	r0, #208	; 0xd0
 8000768:	e7f4      	b.n	8000754 <lcdGoto+0x14>
		case CGRAM : sendInternal(LCD_I2C_ADDRESS_8B, 0x40u | address, 0); break;
 800076a:	2040      	movs	r0, #64	; 0x40
 800076c:	e7f2      	b.n	8000754 <lcdGoto+0x14>

0800076e <lcdSetMode>:

/*!	\details	Change LCD settings. */
void lcdSetMode(uint8_t param)
{
 800076e:	b510      	push	{r4, lr}
	/* Send a command to LCD. */
#ifdef USE_I2C_BUS
	sendInternal(LCD_I2C_ADDRESS_8B, param, 0);
 8000770:	2100      	movs	r1, #0
 8000772:	f7ff ff91 	bl	8000698 <sendInternal.constprop.0>
#else
	CLR(LCD_RS_OUT, LCD_RS);
	lcdWrite(param);
#endif
}
 8000776:	bd10      	pop	{r4, pc}

08000778 <lcdPutc>:

/*!	\details	Write a single char to the current memory space (DDRAM/CGRAM). */
void lcdPutc(uint8_t data)
{
 8000778:	b510      	push	{r4, lr}
	/* Send data to LCD. */
#ifdef USE_I2C_BUS
	sendInternal(LCD_I2C_ADDRESS_8B, data, PIN_RS);
 800077a:	2101      	movs	r1, #1
 800077c:	f7ff ff8c 	bl	8000698 <sendInternal.constprop.0>
	 * After execution of the CGRAM/DDRAM data write/read instruction, the RAM address counter is incremented
	 * or decremented by 1. The RAM address counter is updated after the busy flag turns off.
	 * tADD is the time elapsed after the busy flag turns off until the address counter is updated. */
	lcd10usDelay(AC_UPDATE_TIME);	/* Update RAM address counter delay. */
#endif
}
 8000780:	bd10      	pop	{r4, pc}

08000782 <lcdPuts>:

/*!	\details	Writes ANSI-C string to LCD (DDRAM memory space). */
//void lcdPuts(const uint8_t *str)
void lcdPuts(const char *str)
{
 8000782:	b510      	push	{r4, lr}
 8000784:	0004      	movs	r4, r0
	/* Send a ANSI-C string to LCD. */
	while ('\0' != *str)
 8000786:	7820      	ldrb	r0, [r4, #0]
 8000788:	2800      	cmp	r0, #0
 800078a:	d100      	bne.n	800078e <lcdPuts+0xc>
			lcdPutc(*str);
		}
		/* Get the next symbol. */
		str++;
	}
}
 800078c:	bd10      	pop	{r4, pc}
		if(('\n' == *str))
 800078e:	280a      	cmp	r0, #10
 8000790:	d105      	bne.n	800079e <lcdPuts+0x1c>
			lcdGoto(LCD_2nd_LINE, 0u);
 8000792:	2100      	movs	r1, #0
 8000794:	3808      	subs	r0, #8
 8000796:	f7ff ffd3 	bl	8000740 <lcdGoto>
		str++;
 800079a:	3401      	adds	r4, #1
 800079c:	e7f3      	b.n	8000786 <lcdPuts+0x4>
		else if(('\r' == *str))
 800079e:	280d      	cmp	r0, #13
 80007a0:	d102      	bne.n	80007a8 <lcdPuts+0x26>
			lcdReturn();
 80007a2:	f7ff ffb9 	bl	8000718 <lcdReturn>
 80007a6:	e7f8      	b.n	800079a <lcdPuts+0x18>
		else if(('\t' == *str))
 80007a8:	2809      	cmp	r0, #9
 80007aa:	d10c      	bne.n	80007c6 <lcdPuts+0x44>
				cursorShift(RIGHT);
 80007ac:	3035      	adds	r0, #53	; 0x35
 80007ae:	f7ff ffb9 	bl	8000724 <cursorShift>
 80007b2:	203e      	movs	r0, #62	; 0x3e
 80007b4:	f7ff ffb6 	bl	8000724 <cursorShift>
 80007b8:	203e      	movs	r0, #62	; 0x3e
 80007ba:	f7ff ffb3 	bl	8000724 <cursorShift>
 80007be:	203e      	movs	r0, #62	; 0x3e
 80007c0:	f7ff ffb0 	bl	8000724 <cursorShift>
			for(i=0u; i<TAB_SPACE; i++)
 80007c4:	e7e9      	b.n	800079a <lcdPuts+0x18>
			lcdPutc(*str);
 80007c6:	f7ff ffd7 	bl	8000778 <lcdPutc>
 80007ca:	e7e6      	b.n	800079a <lcdPuts+0x18>

080007cc <lcdItos>:
	return retval;
}

/*!	\brief	Display a integer number: +/- 2147483647. */
void lcdItos(int32_t value)
{
 80007cc:	b570      	push	{r4, r5, r6, lr}
 80007ce:	1e05      	subs	r5, r0, #0
	int32_t i;

	if (value < 0)
 80007d0:	da03      	bge.n	80007da <lcdItos+0xe>
	{
		lcdPutc('-');
 80007d2:	202d      	movs	r0, #45	; 0x2d
 80007d4:	f7ff ffd0 	bl	8000778 <lcdPutc>
		value = -value;
 80007d8:	426d      	negs	r5, r5
	}

	i = 1;
 80007da:	2401      	movs	r4, #1
	while ((value / i) > 9)
	{
		i *= 10;
 80007dc:	260a      	movs	r6, #10
	while ((value / i) > 9)
 80007de:	0021      	movs	r1, r4
 80007e0:	0028      	movs	r0, r5
 80007e2:	f7ff fd2f 	bl	8000244 <__divsi3>
 80007e6:	2809      	cmp	r0, #9
 80007e8:	dc0c      	bgt.n	8000804 <lcdItos+0x38>
	}

	lcdPutc(value/i + '0');	/* Display at least one symbol */
 80007ea:	3030      	adds	r0, #48	; 0x30
 80007ec:	b2c0      	uxtb	r0, r0
 80007ee:	f7ff ffc3 	bl	8000778 <lcdPutc>
	i /= 10;
 80007f2:	0020      	movs	r0, r4
 80007f4:	210a      	movs	r1, #10
 80007f6:	f7ff fd25 	bl	8000244 <__divsi3>

	while (i > 0)
	{
		lcdPutc('0' + ((value % (i*10)) / i));
 80007fa:	260a      	movs	r6, #10
	i /= 10;
 80007fc:	0004      	movs	r4, r0
	while (i > 0)
 80007fe:	2c00      	cmp	r4, #0
 8000800:	d102      	bne.n	8000808 <lcdItos+0x3c>
		i /= 10;
	}
}
 8000802:	bd70      	pop	{r4, r5, r6, pc}
		i *= 10;
 8000804:	4374      	muls	r4, r6
 8000806:	e7ea      	b.n	80007de <lcdItos+0x12>
		lcdPutc('0' + ((value % (i*10)) / i));
 8000808:	0031      	movs	r1, r6
 800080a:	0028      	movs	r0, r5
 800080c:	4361      	muls	r1, r4
 800080e:	f7ff fdff 	bl	8000410 <__aeabi_idivmod>
 8000812:	0008      	movs	r0, r1
 8000814:	0021      	movs	r1, r4
 8000816:	f7ff fd15 	bl	8000244 <__divsi3>
 800081a:	3030      	adds	r0, #48	; 0x30
 800081c:	b2c0      	uxtb	r0, r0
 800081e:	f7ff ffab 	bl	8000778 <lcdPutc>
		i /= 10;
 8000822:	0020      	movs	r0, r4
 8000824:	210a      	movs	r1, #10
 8000826:	f7ff fd0d 	bl	8000244 <__divsi3>
 800082a:	0004      	movs	r4, r0
 800082c:	e7e7      	b.n	80007fe <lcdItos+0x32>

0800082e <lcdInit>:
#endif

/*!	\brief	Initialize the LCD.
 * 	\note	This library use the 4-bit interface. */
void lcdInit(void)
{
 800082e:	b510      	push	{r4, lr}
	HAL_Delay(1);
	lcdConfig(0x02);
	HAL_Delay(1);
#endif
#endif
	lcdConfig(DEFAULT_DISPLAY_CONFIG);
 8000830:	2028      	movs	r0, #40	; 0x28
 8000832:	f7ff ff9c 	bl	800076e <lcdSetMode>
	lcdSetMode(DEFAULT_VIEW_MODE);
 8000836:	200c      	movs	r0, #12
 8000838:	f7ff ff99 	bl	800076e <lcdSetMode>
	lcdSetMode(DEFAULT_ENTRY_MODE);
 800083c:	2006      	movs	r0, #6
 800083e:	f7ff ff96 	bl	800076e <lcdSetMode>
	lcdClrScr();
 8000842:	f7ff ff63 	bl	800070c <lcdClrScr>
	lcdReturn();
 8000846:	f7ff ff67 	bl	8000718 <lcdReturn>
	#if (USE_PROGRESS_BAR)
		lcdInitBar();
	#endif
}
 800084a:	bd10      	pop	{r4, pc}

0800084c <lcdBackLightOn>:

#ifdef USE_I2C_BUS
void lcdBackLightOn(void)
{
	current_status_backlight = (1 << 3);
 800084c:	2208      	movs	r2, #8
{
 800084e:	b510      	push	{r4, lr}
	current_status_backlight = (1 << 3);
 8000850:	4b03      	ldr	r3, [pc, #12]	; (8000860 <lcdBackLightOn+0x14>)
	sendInternal(LCD_I2C_ADDRESS_8B, 0x0Fu, 0);
 8000852:	2100      	movs	r1, #0
 8000854:	200f      	movs	r0, #15
	current_status_backlight = (1 << 3);
 8000856:	701a      	strb	r2, [r3, #0]
	sendInternal(LCD_I2C_ADDRESS_8B, 0x0Fu, 0);
 8000858:	f7ff ff1e 	bl	8000698 <sendInternal.constprop.0>
}
 800085c:	bd10      	pop	{r4, pc}
 800085e:	46c0      	nop			; (mov r8, r8)
 8000860:	20000090 	.word	0x20000090

08000864 <LL_IOP_GRP1_EnableClock>:
  * @retval None
*/
__STATIC_INLINE void LL_IOP_GRP1_EnableClock(uint32_t Periphs)
{
  __IO uint32_t tmpreg;
  SET_BIT(RCC->IOPENR, Periphs);
 8000864:	4b05      	ldr	r3, [pc, #20]	; (800087c <LL_IOP_GRP1_EnableClock+0x18>)
{
 8000866:	b082      	sub	sp, #8
  SET_BIT(RCC->IOPENR, Periphs);
 8000868:	6ada      	ldr	r2, [r3, #44]	; 0x2c
 800086a:	4302      	orrs	r2, r0
 800086c:	62da      	str	r2, [r3, #44]	; 0x2c
  /* Delay after an RCC peripheral clock enabling */
  tmpreg = READ_BIT(RCC->IOPENR, Periphs);
 800086e:	6adb      	ldr	r3, [r3, #44]	; 0x2c
 8000870:	4018      	ands	r0, r3
 8000872:	9001      	str	r0, [sp, #4]
  (void)tmpreg;
 8000874:	9b01      	ldr	r3, [sp, #4]
}
 8000876:	b002      	add	sp, #8
 8000878:	4770      	bx	lr
 800087a:	46c0      	nop			; (mov r8, r8)
 800087c:	40021000 	.word	0x40021000

08000880 <ShowWarning>:
	gradus = man_azimuth = 0;
	WriteToEEPROM(EEPROM_ADDRESS_START, gradus);
    WriteToEEPROM(EEPROM_ADDRESS_START+sizeof(gradus), man_azimuth);
}

void ShowWarning() {
 8000880:	b510      	push	{r4, lr}
	lcdClrScr();
 8000882:	f7ff ff43 	bl	800070c <lcdClrScr>
	lcdGoto(LCD_1st_LINE, 1);
 8000886:	2101      	movs	r1, #1
 8000888:	0008      	movs	r0, r1
 800088a:	f7ff ff59 	bl	8000740 <lcdGoto>
	lcdPuts("TURN ON 12VDC!!");
 800088e:	4804      	ldr	r0, [pc, #16]	; (80008a0 <ShowWarning+0x20>)
 8000890:	f7ff ff77 	bl	8000782 <lcdPuts>
	lcdGoto(LCD_2nd_LINE, 16);
 8000894:	2110      	movs	r1, #16
 8000896:	2002      	movs	r0, #2
 8000898:	f7ff ff52 	bl	8000740 <lcdGoto>
}
 800089c:	bd10      	pop	{r4, pc}
 800089e:	46c0      	nop			; (mov r8, r8)
 80008a0:	080036b0 	.word	0x080036b0

080008a4 <ConvertCharToGradus>:
	lcdGoto(LCD_1st_LINE, 16);
	ConvertGradusToChar(gradus);

}

uint32_t ConvertCharToGradus() {
 80008a4:	b510      	push	{r4, lr}
	uint8_t hund = 0;
	uint8_t dec = 0;
	uint8_t one = 0;
	uint8_t ostatok = 0;
	uint32_t rezult = 0;
	hund = str_rx[1] - 48;
 80008a6:	4b0e      	ldr	r3, [pc, #56]	; (80008e0 <ConvertCharToGradus+0x3c>)
	dec = str_rx[2] - 48;
	one = str_rx[3] - 48;
	rezult = hund * 100 + dec * 10 + one;
 80008a8:	210a      	movs	r1, #10
	hund = str_rx[1] - 48;
 80008aa:	785c      	ldrb	r4, [r3, #1]
	ostatok = rezult % 3;
	str_rx[0] = 0;
 80008ac:	2200      	movs	r2, #0
	hund = str_rx[1] - 48;
 80008ae:	3c30      	subs	r4, #48	; 0x30
	rezult = hund * 100 + dec * 10 + one;
 80008b0:	b2e0      	uxtb	r0, r4
 80008b2:	2464      	movs	r4, #100	; 0x64
 80008b4:	4344      	muls	r4, r0
	dec = str_rx[2] - 48;
 80008b6:	7898      	ldrb	r0, [r3, #2]
	str_rx[0] = 0;
 80008b8:	701a      	strb	r2, [r3, #0]
	dec = str_rx[2] - 48;
 80008ba:	3830      	subs	r0, #48	; 0x30
	rezult = hund * 100 + dec * 10 + one;
 80008bc:	b2c0      	uxtb	r0, r0
 80008be:	4348      	muls	r0, r1
 80008c0:	1824      	adds	r4, r4, r0
	one = str_rx[3] - 48;
 80008c2:	78d8      	ldrb	r0, [r3, #3]
	str_rx[1] = 0;
 80008c4:	705a      	strb	r2, [r3, #1]
	one = str_rx[3] - 48;
 80008c6:	3830      	subs	r0, #48	; 0x30
	rezult = hund * 100 + dec * 10 + one;
 80008c8:	b2c0      	uxtb	r0, r0
 80008ca:	1824      	adds	r4, r4, r0
	ostatok = rezult % 3;
 80008cc:	0020      	movs	r0, r4
	str_rx[2] = 0;
 80008ce:	709a      	strb	r2, [r3, #2]
	str_rx[3] = 0;
 80008d0:	70da      	strb	r2, [r3, #3]
	str_rx[4] = 0;
 80008d2:	711a      	strb	r2, [r3, #4]
	str_rx[5] = 0;
 80008d4:	715a      	strb	r2, [r3, #5]
	ostatok = rezult % 3;
 80008d6:	3907      	subs	r1, #7
 80008d8:	f7ff fcb0 	bl	800023c <__aeabi_uidivmod>
	if (ostatok == 0)
		return rezult;
	else
		return (rezult - ostatok);
 80008dc:	1a60      	subs	r0, r4, r1

}
 80008de:	bd10      	pop	{r4, pc}
 80008e0:	200000d0 	.word	0x200000d0

080008e4 <ConvertGradusToChar>:
	}

}

void ConvertGradusToChar (uint32_t grad)
{
 80008e4:	b573      	push	{r0, r1, r4, r5, r6, lr}
 80008e6:	0005      	movs	r5, r0
	uint8_t hund=0;
	uint8_t dec=0;
	uint8_t one=0;
	if (grad >= 100)
 80008e8:	2863      	cmp	r0, #99	; 0x63
 80008ea:	d924      	bls.n	8000936 <ConvertGradusToChar+0x52>
		{
		hund = grad / 100;
 80008ec:	2164      	movs	r1, #100	; 0x64
 80008ee:	f7ff fc1f 	bl	8000130 <__udivsi3>
		dec = (grad % 100)/10;
 80008f2:	2164      	movs	r1, #100	; 0x64
		hund = grad / 100;
 80008f4:	b2c6      	uxtb	r6, r0
		dec = (grad % 100)/10;
 80008f6:	0028      	movs	r0, r5
 80008f8:	f7ff fca0 	bl	800023c <__aeabi_uidivmod>
 80008fc:	0008      	movs	r0, r1
 80008fe:	210a      	movs	r1, #10
 8000900:	f7ff fc16 	bl	8000130 <__udivsi3>
 8000904:	b2c4      	uxtb	r4, r0
 8000906:	0021      	movs	r1, r4
	{
		hund = 0;
		dec = 0;
		one = grad;
	}
	if ((grad>9)&&(grad<100))
 8000908:	002b      	movs	r3, r5
 800090a:	3b0a      	subs	r3, #10
 800090c:	2b59      	cmp	r3, #89	; 0x59
 800090e:	d80a      	bhi.n	8000926 <ConvertGradusToChar+0x42>
	{
		hund = 0;
		dec = grad/10;
 8000910:	210a      	movs	r1, #10
 8000912:	0028      	movs	r0, r5
 8000914:	f7ff fc0c 	bl	8000130 <__udivsi3>
		one = grad % 10;
 8000918:	210a      	movs	r1, #10
		dec = grad/10;
 800091a:	b2c4      	uxtb	r4, r0
		one = grad % 10;
 800091c:	0028      	movs	r0, r5
 800091e:	f7ff fc8d 	bl	800023c <__aeabi_uidivmod>
		hund = 0;
 8000922:	2600      	movs	r6, #0
		one = grad % 10;
 8000924:	b2c9      	uxtb	r1, r1
	}
	sprintf (str_tx, "+0%d%d%d\r\n",hund,dec,one);
 8000926:	0032      	movs	r2, r6
 8000928:	9100      	str	r1, [sp, #0]
 800092a:	0023      	movs	r3, r4
 800092c:	4907      	ldr	r1, [pc, #28]	; (800094c <ConvertGradusToChar+0x68>)
 800092e:	4808      	ldr	r0, [pc, #32]	; (8000950 <ConvertGradusToChar+0x6c>)
 8000930:	f002 fa8c 	bl	8002e4c <siprintf>
}
 8000934:	bd73      	pop	{r0, r1, r4, r5, r6, pc}
	if (grad < 10)
 8000936:	2809      	cmp	r0, #9
 8000938:	d803      	bhi.n	8000942 <ConvertGradusToChar+0x5e>
		dec = 0;
 800093a:	2400      	movs	r4, #0
		one = grad;
 800093c:	b2c1      	uxtb	r1, r0
		hund = 0;
 800093e:	0026      	movs	r6, r4
 8000940:	e7e2      	b.n	8000908 <ConvertGradusToChar+0x24>
	uint8_t dec=0;
 8000942:	2100      	movs	r1, #0
 8000944:	000c      	movs	r4, r1
	uint8_t hund=0;
 8000946:	000e      	movs	r6, r1
 8000948:	e7de      	b.n	8000908 <ConvertGradusToChar+0x24>
 800094a:	46c0      	nop			; (mov r8, r8)
 800094c:	080036c0 	.word	0x080036c0
 8000950:	200000e4 	.word	0x200000e4

08000954 <RotateFromUSART>:
 {
 8000954:	b5f8      	push	{r3, r4, r5, r6, r7, lr}
	man_azimuth = grad;
 8000956:	4f5e      	ldr	r7, [pc, #376]	; (8000ad0 <RotateFromUSART+0x17c>)
 8000958:	6038      	str	r0, [r7, #0]
	if (man_azimuth >= 180) dir_azimuth = man_azimuth - 360; else dir_azimuth = man_azimuth;
 800095a:	28b3      	cmp	r0, #179	; 0xb3
 800095c:	d901      	bls.n	8000962 <RotateFromUSART+0xe>
 800095e:	3869      	subs	r0, #105	; 0x69
 8000960:	38ff      	subs	r0, #255	; 0xff
    if (gradus >= 180) dir_gradus = gradus - 360; else dir_gradus = gradus;
 8000962:	4c5c      	ldr	r4, [pc, #368]	; (8000ad4 <RotateFromUSART+0x180>)
 8000964:	4d5c      	ldr	r5, [pc, #368]	; (8000ad8 <RotateFromUSART+0x184>)
 8000966:	6823      	ldr	r3, [r4, #0]
 8000968:	6028      	str	r0, [r5, #0]
 800096a:	2bb3      	cmp	r3, #179	; 0xb3
 800096c:	d901      	bls.n	8000972 <RotateFromUSART+0x1e>
 800096e:	3b69      	subs	r3, #105	; 0x69
 8000970:	3bff      	subs	r3, #255	; 0xff
 8000972:	4e5a      	ldr	r6, [pc, #360]	; (8000adc <RotateFromUSART+0x188>)
    lcdGoto(LCD_2nd_LINE,13);
 8000974:	210d      	movs	r1, #13
 8000976:	2002      	movs	r0, #2
 8000978:	6033      	str	r3, [r6, #0]
 800097a:	f7ff fee1 	bl	8000740 <lcdGoto>
    lcdPuts("   ");
 800097e:	4858      	ldr	r0, [pc, #352]	; (8000ae0 <RotateFromUSART+0x18c>)
 8000980:	f7ff feff 	bl	8000782 <lcdPuts>
    lcdGoto(LCD_2nd_LINE,13);
 8000984:	210d      	movs	r1, #13
 8000986:	2002      	movs	r0, #2
 8000988:	f7ff feda 	bl	8000740 <lcdGoto>
    lcdItos(man_azimuth);
 800098c:	6838      	ldr	r0, [r7, #0]
 800098e:	f7ff ff1d 	bl	80007cc <lcdItos>
    lcdGoto(LCD_2nd_LINE,16);
 8000992:	2110      	movs	r1, #16
 8000994:	2002      	movs	r0, #2
 8000996:	f7ff fed3 	bl	8000740 <lcdGoto>
  * @param  TIMx Timer instance
  * @retval None
  */
__STATIC_INLINE void LL_TIM_ClearFlag_UPDATE(TIM_TypeDef *TIMx)
{
  WRITE_REG(TIMx->SR, ~(TIM_SR_UIF));
 800099a:	2380      	movs	r3, #128	; 0x80
 800099c:	2202      	movs	r2, #2
 800099e:	05db      	lsls	r3, r3, #23
 80009a0:	4252      	negs	r2, r2
 80009a2:	611a      	str	r2, [r3, #16]
  SET_BIT(TIMx->CR1, TIM_CR1_CEN);
 80009a4:	6819      	ldr	r1, [r3, #0]
 80009a6:	3203      	adds	r2, #3
 80009a8:	4311      	orrs	r1, r2
 80009aa:	6019      	str	r1, [r3, #0]
  * @param  TIMx Timer instance
  * @retval None
  */
__STATIC_INLINE void LL_TIM_EnableIT_UPDATE(TIM_TypeDef *TIMx)
{
  SET_BIT(TIMx->DIER, TIM_DIER_UIE);
 80009ac:	68d9      	ldr	r1, [r3, #12]
 80009ae:	430a      	orrs	r2, r1
 80009b0:	60da      	str	r2, [r3, #12]
	if (dir_azimuth > dir_gradus) {
 80009b2:	682b      	ldr	r3, [r5, #0]
 80009b4:	6832      	ldr	r2, [r6, #0]
 80009b6:	4293      	cmp	r3, r2
 80009b8:	dd54      	ble.n	8000a64 <RotateFromUSART+0x110>
		time_on_cw = HAL_GetTick();
 80009ba:	f000 ff77 	bl	80018ac <HAL_GetTick>
 80009be:	4f49      	ldr	r7, [pc, #292]	; (8000ae4 <RotateFromUSART+0x190>)
 80009c0:	6038      	str	r0, [r7, #0]
		while (dir_gradus < dir_azimuth) {
 80009c2:	6833      	ldr	r3, [r6, #0]
 80009c4:	682a      	ldr	r2, [r5, #0]
 80009c6:	4293      	cmp	r3, r2
 80009c8:	da27      	bge.n	8000a1a <RotateFromUSART+0xc6>
			lcdGoto(LCD_1st_LINE, 13);
 80009ca:	210d      	movs	r1, #13
 80009cc:	2001      	movs	r0, #1
 80009ce:	f7ff feb7 	bl	8000740 <lcdGoto>
			lcdPuts("   ");
 80009d2:	4843      	ldr	r0, [pc, #268]	; (8000ae0 <RotateFromUSART+0x18c>)
 80009d4:	f7ff fed5 	bl	8000782 <lcdPuts>
			lcdGoto(LCD_1st_LINE, 13);
 80009d8:	210d      	movs	r1, #13
 80009da:	2001      	movs	r0, #1
 80009dc:	f7ff feb0 	bl	8000740 <lcdGoto>
			lcdItos(gradus);
 80009e0:	6820      	ldr	r0, [r4, #0]
 80009e2:	f7ff fef3 	bl	80007cc <lcdItos>
			lcdGoto(LCD_1st_LINE, 16);
 80009e6:	2110      	movs	r1, #16
 80009e8:	2001      	movs	r0, #1
 80009ea:	f7ff fea9 	bl	8000740 <lcdGoto>
  *         @arg @ref LL_GPIO_PIN_ALL
  * @retval None
  */
__STATIC_INLINE void LL_GPIO_ResetOutputPin(GPIO_TypeDef *GPIOx, uint32_t PinMask)
{
  WRITE_REG(GPIOx->BRR, PinMask);
 80009ee:	22a0      	movs	r2, #160	; 0xa0
 80009f0:	2302      	movs	r3, #2
 80009f2:	05d2      	lsls	r2, r2, #23
 80009f4:	6293      	str	r3, [r2, #40]	; 0x28
  WRITE_REG(GPIOx->BSRR, PinMask);
 80009f6:	333e      	adds	r3, #62	; 0x3e
 80009f8:	6193      	str	r3, [r2, #24]
			LL_mDelay(50);
 80009fa:	2032      	movs	r0, #50	; 0x32
 80009fc:	f002 f9de 	bl	8002dbc <LL_mDelay>
			if ((HAL_GetTick() - time_on_cw) > 10000)
 8000a00:	f000 ff54 	bl	80018ac <HAL_GetTick>
 8000a04:	683b      	ldr	r3, [r7, #0]
 8000a06:	1ac0      	subs	r0, r0, r3
 8000a08:	4b37      	ldr	r3, [pc, #220]	; (8000ae8 <RotateFromUSART+0x194>)
 8000a0a:	4298      	cmp	r0, r3
 8000a0c:	d805      	bhi.n	8000a1a <RotateFromUSART+0xc6>
			if (flag_stop==1) {flag_stop =0; break;}
 8000a0e:	4b37      	ldr	r3, [pc, #220]	; (8000aec <RotateFromUSART+0x198>)
 8000a10:	781a      	ldrb	r2, [r3, #0]
 8000a12:	2a01      	cmp	r2, #1
 8000a14:	d1d5      	bne.n	80009c2 <RotateFromUSART+0x6e>
 8000a16:	2200      	movs	r2, #0
 8000a18:	701a      	strb	r2, [r3, #0]
 8000a1a:	23a0      	movs	r3, #160	; 0xa0
 8000a1c:	2202      	movs	r2, #2
 8000a1e:	05db      	lsls	r3, r3, #23
 8000a20:	619a      	str	r2, [r3, #24]
  WRITE_REG(GPIOx->BRR, PinMask);
 8000a22:	323e      	adds	r2, #62	; 0x3e
 8000a24:	629a      	str	r2, [r3, #40]	; 0x28
  CLEAR_BIT(TIMx->CR1, TIM_CR1_CEN);
 8000a26:	2380      	movs	r3, #128	; 0x80
 8000a28:	2101      	movs	r1, #1
 8000a2a:	05db      	lsls	r3, r3, #23
 8000a2c:	681a      	ldr	r2, [r3, #0]
	lcdGoto(LCD_1st_LINE, 13);
 8000a2e:	2001      	movs	r0, #1
 8000a30:	438a      	bics	r2, r1
 8000a32:	601a      	str	r2, [r3, #0]
  * @param  TIMx Timer instance
  * @retval None
  */
__STATIC_INLINE void LL_TIM_DisableIT_UPDATE(TIM_TypeDef *TIMx)
{
  CLEAR_BIT(TIMx->DIER, TIM_DIER_UIE);
 8000a34:	68da      	ldr	r2, [r3, #12]
 8000a36:	438a      	bics	r2, r1
 8000a38:	60da      	str	r2, [r3, #12]
 8000a3a:	210d      	movs	r1, #13
 8000a3c:	f7ff fe80 	bl	8000740 <lcdGoto>
	lcdPuts("   ");
 8000a40:	4827      	ldr	r0, [pc, #156]	; (8000ae0 <RotateFromUSART+0x18c>)
 8000a42:	f7ff fe9e 	bl	8000782 <lcdPuts>
	lcdGoto(LCD_1st_LINE, 13);
 8000a46:	210d      	movs	r1, #13
 8000a48:	2001      	movs	r0, #1
 8000a4a:	f7ff fe79 	bl	8000740 <lcdGoto>
	lcdItos(gradus);
 8000a4e:	6820      	ldr	r0, [r4, #0]
 8000a50:	f7ff febc 	bl	80007cc <lcdItos>
	lcdGoto(LCD_1st_LINE, 16);
 8000a54:	2110      	movs	r1, #16
 8000a56:	2001      	movs	r0, #1
 8000a58:	f7ff fe72 	bl	8000740 <lcdGoto>
	ConvertGradusToChar(gradus);
 8000a5c:	6820      	ldr	r0, [r4, #0]
 8000a5e:	f7ff ff41 	bl	80008e4 <ConvertGradusToChar>
}
 8000a62:	bdf8      	pop	{r3, r4, r5, r6, r7, pc}
		time_on_ccw = HAL_GetTick();
 8000a64:	f000 ff22 	bl	80018ac <HAL_GetTick>
 8000a68:	4f21      	ldr	r7, [pc, #132]	; (8000af0 <RotateFromUSART+0x19c>)
 8000a6a:	6038      	str	r0, [r7, #0]
		while (dir_gradus > dir_azimuth) {
 8000a6c:	6833      	ldr	r3, [r6, #0]
 8000a6e:	682a      	ldr	r2, [r5, #0]
 8000a70:	4293      	cmp	r3, r2
 8000a72:	dd27      	ble.n	8000ac4 <RotateFromUSART+0x170>
			lcdGoto(LCD_1st_LINE, 13);
 8000a74:	210d      	movs	r1, #13
 8000a76:	2001      	movs	r0, #1
 8000a78:	f7ff fe62 	bl	8000740 <lcdGoto>
			lcdPuts("   ");
 8000a7c:	4818      	ldr	r0, [pc, #96]	; (8000ae0 <RotateFromUSART+0x18c>)
 8000a7e:	f7ff fe80 	bl	8000782 <lcdPuts>
			lcdGoto(LCD_1st_LINE, 13);
 8000a82:	210d      	movs	r1, #13
 8000a84:	2001      	movs	r0, #1
 8000a86:	f7ff fe5b 	bl	8000740 <lcdGoto>
			lcdItos(gradus);
 8000a8a:	6820      	ldr	r0, [r4, #0]
 8000a8c:	f7ff fe9e 	bl	80007cc <lcdItos>
			lcdGoto(LCD_1st_LINE, 16);
 8000a90:	2110      	movs	r1, #16
 8000a92:	2001      	movs	r0, #1
 8000a94:	f7ff fe54 	bl	8000740 <lcdGoto>
 8000a98:	22a0      	movs	r2, #160	; 0xa0
 8000a9a:	2302      	movs	r3, #2
 8000a9c:	05d2      	lsls	r2, r2, #23
 8000a9e:	6293      	str	r3, [r2, #40]	; 0x28
  WRITE_REG(GPIOx->BSRR, PinMask);
 8000aa0:	337e      	adds	r3, #126	; 0x7e
 8000aa2:	6193      	str	r3, [r2, #24]
			LL_mDelay(50);
 8000aa4:	2032      	movs	r0, #50	; 0x32
 8000aa6:	f002 f989 	bl	8002dbc <LL_mDelay>
			if ((HAL_GetTick() - time_on_ccw) > 10000)
 8000aaa:	f000 feff 	bl	80018ac <HAL_GetTick>
 8000aae:	683b      	ldr	r3, [r7, #0]
 8000ab0:	1ac0      	subs	r0, r0, r3
 8000ab2:	4b0d      	ldr	r3, [pc, #52]	; (8000ae8 <RotateFromUSART+0x194>)
 8000ab4:	4298      	cmp	r0, r3
 8000ab6:	d805      	bhi.n	8000ac4 <RotateFromUSART+0x170>
			if (flag_stop==1) {flag_stop =0; break;}
 8000ab8:	4b0c      	ldr	r3, [pc, #48]	; (8000aec <RotateFromUSART+0x198>)
 8000aba:	781a      	ldrb	r2, [r3, #0]
 8000abc:	2a01      	cmp	r2, #1
 8000abe:	d1d5      	bne.n	8000a6c <RotateFromUSART+0x118>
 8000ac0:	2200      	movs	r2, #0
 8000ac2:	701a      	strb	r2, [r3, #0]
 8000ac4:	23a0      	movs	r3, #160	; 0xa0
 8000ac6:	2202      	movs	r2, #2
 8000ac8:	05db      	lsls	r3, r3, #23
 8000aca:	619a      	str	r2, [r3, #24]
  WRITE_REG(GPIOx->BRR, PinMask);
 8000acc:	327e      	adds	r2, #126	; 0x7e
 8000ace:	e7a9      	b.n	8000a24 <RotateFromUSART+0xd0>
 8000ad0:	200000c0 	.word	0x200000c0
 8000ad4:	200000dc 	.word	0x200000dc
 8000ad8:	200000cc 	.word	0x200000cc
 8000adc:	200000bc 	.word	0x200000bc
 8000ae0:	080036cb 	.word	0x080036cb
 8000ae4:	200000b4 	.word	0x200000b4
 8000ae8:	00002710 	.word	0x00002710
 8000aec:	200000b9 	.word	0x200000b9
 8000af0:	200000c8 	.word	0x200000c8

08000af4 <USART2_Send>:

void USART2_Send (char chr){
	while (!(USART2->ISR & USART_ISR_TC));
 8000af4:	2240      	movs	r2, #64	; 0x40
 8000af6:	4b03      	ldr	r3, [pc, #12]	; (8000b04 <USART2_Send+0x10>)
 8000af8:	69d9      	ldr	r1, [r3, #28]
 8000afa:	4211      	tst	r1, r2
 8000afc:	d0fc      	beq.n	8000af8 <USART2_Send+0x4>
	USART2->TDR = chr;
 8000afe:	6298      	str	r0, [r3, #40]	; 0x28
}
 8000b00:	4770      	bx	lr
 8000b02:	46c0      	nop			; (mov r8, r8)
 8000b04:	40004400 	.word	0x40004400

08000b08 <USART2_Send_String>:

void USART2_Send_String (char* str){
 8000b08:	b570      	push	{r4, r5, r6, lr}
 8000b0a:	0005      	movs	r5, r0
	uint8_t i = 0;
 8000b0c:	2400      	movs	r4, #0
	while(str[i])
 8000b0e:	5d28      	ldrb	r0, [r5, r4]
 8000b10:	2800      	cmp	r0, #0
 8000b12:	d100      	bne.n	8000b16 <USART2_Send_String+0xe>
	USART2_Send (str[i++]);
}
 8000b14:	bd70      	pop	{r4, r5, r6, pc}
	USART2_Send (str[i++]);
 8000b16:	3401      	adds	r4, #1
 8000b18:	b2e4      	uxtb	r4, r4
 8000b1a:	f7ff ffeb 	bl	8000af4 <USART2_Send>
 8000b1e:	e7f6      	b.n	8000b0e <USART2_Send_String+0x6>

08000b20 <CheckUSART>:
{
 8000b20:	b510      	push	{r4, lr}
	if (flag_status == 1)
 8000b22:	4b0f      	ldr	r3, [pc, #60]	; (8000b60 <CheckUSART+0x40>)
 8000b24:	781a      	ldrb	r2, [r3, #0]
 8000b26:	2a01      	cmp	r2, #1
 8000b28:	d10f      	bne.n	8000b4a <CheckUSART+0x2a>
		flag_status=0;
 8000b2a:	2400      	movs	r4, #0
 8000b2c:	701c      	strb	r4, [r3, #0]
		ConvertGradusToChar(gradus);
 8000b2e:	4b0d      	ldr	r3, [pc, #52]	; (8000b64 <CheckUSART+0x44>)
 8000b30:	6818      	ldr	r0, [r3, #0]
 8000b32:	f7ff fed7 	bl	80008e4 <ConvertGradusToChar>
		str_rx[0]=0;
 8000b36:	4b0c      	ldr	r3, [pc, #48]	; (8000b68 <CheckUSART+0x48>)
		USART2_Send_String(str_tx);
 8000b38:	480c      	ldr	r0, [pc, #48]	; (8000b6c <CheckUSART+0x4c>)
		str_rx[0]=0;
 8000b3a:	701c      	strb	r4, [r3, #0]
		str_rx[1]=0;
 8000b3c:	705c      	strb	r4, [r3, #1]
		str_rx[2]=0;
 8000b3e:	709c      	strb	r4, [r3, #2]
		str_rx[3]=0;
 8000b40:	70dc      	strb	r4, [r3, #3]
		str_rx[4]=0;
 8000b42:	711c      	strb	r4, [r3, #4]
		str_rx[5]=0;
 8000b44:	715c      	strb	r4, [r3, #5]
		USART2_Send_String(str_tx);
 8000b46:	f7ff ffdf 	bl	8000b08 <USART2_Send_String>
	if (flag_move == 1)
 8000b4a:	4b09      	ldr	r3, [pc, #36]	; (8000b70 <CheckUSART+0x50>)
 8000b4c:	781a      	ldrb	r2, [r3, #0]
 8000b4e:	2a01      	cmp	r2, #1
 8000b50:	d105      	bne.n	8000b5e <CheckUSART+0x3e>
		flag_move = 0;
 8000b52:	2200      	movs	r2, #0
 8000b54:	701a      	strb	r2, [r3, #0]
		RotateFromUSART(ConvertCharToGradus());
 8000b56:	f7ff fea5 	bl	80008a4 <ConvertCharToGradus>
 8000b5a:	f7ff fefb 	bl	8000954 <RotateFromUSART>
}
 8000b5e:	bd10      	pop	{r4, pc}
 8000b60:	200000b8 	.word	0x200000b8
 8000b64:	200000dc 	.word	0x200000dc
 8000b68:	200000d0 	.word	0x200000d0
 8000b6c:	200000e4 	.word	0x200000e4
 8000b70:	200000c4 	.word	0x200000c4

08000b74 <ShowStartAzimuth>:
	WriteToEEPROM(EEPROM_ADDRESS_START, gradus);
	WriteToEEPROM(EEPROM_ADDRESS_START+sizeof(gradus), man_azimuth);
}

void ShowStartAzimuth ()
{
 8000b74:	b510      	push	{r4, lr}
	lcdClrScr();
 8000b76:	f7ff fdc9 	bl	800070c <lcdClrScr>
	lcdGoto(LCD_1st_LINE,1);
 8000b7a:	2101      	movs	r1, #1
 8000b7c:	0008      	movs	r0, r1
 8000b7e:	f7ff fddf 	bl	8000740 <lcdGoto>
	lcdPuts("CUR AZIMUTH");
 8000b82:	480f      	ldr	r0, [pc, #60]	; (8000bc0 <ShowStartAzimuth+0x4c>)
 8000b84:	f7ff fdfd 	bl	8000782 <lcdPuts>
	lcdGoto(LCD_1st_LINE,13);
 8000b88:	210d      	movs	r1, #13
 8000b8a:	2001      	movs	r0, #1
 8000b8c:	f7ff fdd8 	bl	8000740 <lcdGoto>
  }
}

uint32_t ReadFromEEPROM (uint32_t address)
{
  return (*(__IO uint32_t *)address);
 8000b90:	4b0c      	ldr	r3, [pc, #48]	; (8000bc4 <ShowStartAzimuth+0x50>)
 8000b92:	6818      	ldr	r0, [r3, #0]
	lcdItos(ReadFromEEPROM(EEPROM_ADDRESS_START));
 8000b94:	f7ff fe1a 	bl	80007cc <lcdItos>
	lcdGoto(LCD_2nd_LINE,1);
 8000b98:	2101      	movs	r1, #1
 8000b9a:	2002      	movs	r0, #2
 8000b9c:	f7ff fdd0 	bl	8000740 <lcdGoto>
	lcdPuts("ANT AZIMUTH");
 8000ba0:	4809      	ldr	r0, [pc, #36]	; (8000bc8 <ShowStartAzimuth+0x54>)
 8000ba2:	f7ff fdee 	bl	8000782 <lcdPuts>
	lcdGoto(LCD_2nd_LINE,13);
 8000ba6:	210d      	movs	r1, #13
 8000ba8:	2002      	movs	r0, #2
 8000baa:	f7ff fdc9 	bl	8000740 <lcdGoto>
  return (*(__IO uint32_t *)address);
 8000bae:	4b07      	ldr	r3, [pc, #28]	; (8000bcc <ShowStartAzimuth+0x58>)
 8000bb0:	6818      	ldr	r0, [r3, #0]
	lcdItos(ReadFromEEPROM(EEPROM_ADDRESS_START+sizeof(gradus)));
 8000bb2:	f7ff fe0b 	bl	80007cc <lcdItos>
	lcdGoto(LCD_2nd_LINE,16);
 8000bb6:	2110      	movs	r1, #16
 8000bb8:	2002      	movs	r0, #2
 8000bba:	f7ff fdc1 	bl	8000740 <lcdGoto>
}
 8000bbe:	bd10      	pop	{r4, pc}
 8000bc0:	080036cf 	.word	0x080036cf
 8000bc4:	08080000 	.word	0x08080000
 8000bc8:	080036db 	.word	0x080036db
 8000bcc:	08080004 	.word	0x08080004

08000bd0 <ReadCWButton>:
	if (HAL_GPIO_ReadPin(BTN_UP_GPIO_Port, BTN_UP_Pin) == GPIO_PIN_RESET
 8000bd0:	2180      	movs	r1, #128	; 0x80
void ReadCWButton() {
 8000bd2:	b570      	push	{r4, r5, r6, lr}
	if (HAL_GPIO_ReadPin(BTN_UP_GPIO_Port, BTN_UP_Pin) == GPIO_PIN_RESET
 8000bd4:	4820      	ldr	r0, [pc, #128]	; (8000c58 <ReadCWButton+0x88>)
 8000bd6:	01c9      	lsls	r1, r1, #7
 8000bd8:	f001 f85c 	bl	8001c94 <HAL_GPIO_ReadPin>
 8000bdc:	4d1f      	ldr	r5, [pc, #124]	; (8000c5c <ReadCWButton+0x8c>)
 8000bde:	2800      	cmp	r0, #0
 8000be0:	d132      	bne.n	8000c48 <ReadCWButton+0x78>
			&& flag_key1_press) {
 8000be2:	782b      	ldrb	r3, [r5, #0]
 8000be4:	2b00      	cmp	r3, #0
 8000be6:	d107      	bne.n	8000bf8 <ReadCWButton+0x28>
	if (!flag_key1_press && (HAL_GetTick() - time_key1_press) > 200) {
 8000be8:	f000 fe60 	bl	80018ac <HAL_GetTick>
 8000bec:	4b1c      	ldr	r3, [pc, #112]	; (8000c60 <ReadCWButton+0x90>)
 8000bee:	681b      	ldr	r3, [r3, #0]
 8000bf0:	1ac0      	subs	r0, r0, r3
 8000bf2:	28c8      	cmp	r0, #200	; 0xc8
 8000bf4:	d82c      	bhi.n	8000c50 <ReadCWButton+0x80>
}
 8000bf6:	bd70      	pop	{r4, r5, r6, pc}
		if (man_azimuth==357) man_azimuth=0;
 8000bf8:	2366      	movs	r3, #102	; 0x66
 8000bfa:	4c1a      	ldr	r4, [pc, #104]	; (8000c64 <ReadCWButton+0x94>)
 8000bfc:	33ff      	adds	r3, #255	; 0xff
 8000bfe:	6822      	ldr	r2, [r4, #0]
		flag_key1_press = 0;
 8000c00:	7028      	strb	r0, [r5, #0]
		if (man_azimuth==357) man_azimuth=0;
 8000c02:	429a      	cmp	r2, r3
 8000c04:	d100      	bne.n	8000c08 <ReadCWButton+0x38>
 8000c06:	6020      	str	r0, [r4, #0]
		isPushCW = 1;
 8000c08:	2201      	movs	r2, #1
		man_azimuth=man_azimuth+3;
 8000c0a:	6823      	ldr	r3, [r4, #0]
		lcdGoto(LCD_2nd_LINE,13);
 8000c0c:	210d      	movs	r1, #13
		man_azimuth=man_azimuth+3;
 8000c0e:	3303      	adds	r3, #3
 8000c10:	6023      	str	r3, [r4, #0]
		isPushCW = 1;
 8000c12:	4b15      	ldr	r3, [pc, #84]	; (8000c68 <ReadCWButton+0x98>)
		lcdGoto(LCD_2nd_LINE,13);
 8000c14:	2002      	movs	r0, #2
		isPushCW = 1;
 8000c16:	601a      	str	r2, [r3, #0]
 8000c18:	23a0      	movs	r3, #160	; 0xa0
 8000c1a:	323f      	adds	r2, #63	; 0x3f
 8000c1c:	05db      	lsls	r3, r3, #23
 8000c1e:	629a      	str	r2, [r3, #40]	; 0x28
		lcdGoto(LCD_2nd_LINE,13);
 8000c20:	f7ff fd8e 	bl	8000740 <lcdGoto>
		lcdPuts("   ");
 8000c24:	4811      	ldr	r0, [pc, #68]	; (8000c6c <ReadCWButton+0x9c>)
 8000c26:	f7ff fdac 	bl	8000782 <lcdPuts>
		lcdGoto(LCD_2nd_LINE,13);
 8000c2a:	210d      	movs	r1, #13
 8000c2c:	2002      	movs	r0, #2
 8000c2e:	f7ff fd87 	bl	8000740 <lcdGoto>
	    lcdItos(man_azimuth);
 8000c32:	6820      	ldr	r0, [r4, #0]
 8000c34:	f7ff fdca 	bl	80007cc <lcdItos>
	    lcdGoto(LCD_2nd_LINE,16);
 8000c38:	2110      	movs	r1, #16
 8000c3a:	2002      	movs	r0, #2
 8000c3c:	f7ff fd80 	bl	8000740 <lcdGoto>
		time_key1_press = HAL_GetTick();
 8000c40:	f000 fe34 	bl	80018ac <HAL_GetTick>
 8000c44:	4b06      	ldr	r3, [pc, #24]	; (8000c60 <ReadCWButton+0x90>)
 8000c46:	6018      	str	r0, [r3, #0]
	if (!flag_key1_press && (HAL_GetTick() - time_key1_press) > 200) {
 8000c48:	782b      	ldrb	r3, [r5, #0]
 8000c4a:	2b00      	cmp	r3, #0
 8000c4c:	d1d3      	bne.n	8000bf6 <ReadCWButton+0x26>
 8000c4e:	e7cb      	b.n	8000be8 <ReadCWButton+0x18>
		flag_key1_press = 1;
 8000c50:	2301      	movs	r3, #1
 8000c52:	702b      	strb	r3, [r5, #0]
}
 8000c54:	e7cf      	b.n	8000bf6 <ReadCWButton+0x26>
 8000c56:	46c0      	nop			; (mov r8, r8)
 8000c58:	50000800 	.word	0x50000800
 8000c5c:	20000000 	.word	0x20000000
 8000c60:	20000098 	.word	0x20000098
 8000c64:	200000c0 	.word	0x200000c0
 8000c68:	200000f0 	.word	0x200000f0
 8000c6c:	080036cb 	.word	0x080036cb

08000c70 <ReadCCWButton>:
	if (HAL_GPIO_ReadPin(BTN_DWN_GPIO_Port, BTN_DWN_Pin) == GPIO_PIN_RESET
 8000c70:	2180      	movs	r1, #128	; 0x80
void ReadCCWButton() {
 8000c72:	b570      	push	{r4, r5, r6, lr}
	if (HAL_GPIO_ReadPin(BTN_DWN_GPIO_Port, BTN_DWN_Pin) == GPIO_PIN_RESET
 8000c74:	4820      	ldr	r0, [pc, #128]	; (8000cf8 <ReadCCWButton+0x88>)
 8000c76:	0209      	lsls	r1, r1, #8
 8000c78:	f001 f80c 	bl	8001c94 <HAL_GPIO_ReadPin>
 8000c7c:	4d1f      	ldr	r5, [pc, #124]	; (8000cfc <ReadCCWButton+0x8c>)
 8000c7e:	2800      	cmp	r0, #0
 8000c80:	d132      	bne.n	8000ce8 <ReadCCWButton+0x78>
			&& flag_key2_press) {
 8000c82:	782b      	ldrb	r3, [r5, #0]
 8000c84:	2b00      	cmp	r3, #0
 8000c86:	d107      	bne.n	8000c98 <ReadCCWButton+0x28>
	if (!flag_key2_press && (HAL_GetTick() - time_key2_press) > 200) {
 8000c88:	f000 fe10 	bl	80018ac <HAL_GetTick>
 8000c8c:	4b1c      	ldr	r3, [pc, #112]	; (8000d00 <ReadCCWButton+0x90>)
 8000c8e:	681b      	ldr	r3, [r3, #0]
 8000c90:	1ac0      	subs	r0, r0, r3
 8000c92:	28c8      	cmp	r0, #200	; 0xc8
 8000c94:	d82c      	bhi.n	8000cf0 <ReadCCWButton+0x80>
}
 8000c96:	bd70      	pop	{r4, r5, r6, pc}
		if (man_azimuth==0) man_azimuth=357;
 8000c98:	4c1a      	ldr	r4, [pc, #104]	; (8000d04 <ReadCCWButton+0x94>)
		flag_key2_press = 0;
 8000c9a:	7028      	strb	r0, [r5, #0]
		if (man_azimuth==0) man_azimuth=357;
 8000c9c:	6823      	ldr	r3, [r4, #0]
 8000c9e:	2b00      	cmp	r3, #0
 8000ca0:	d102      	bne.n	8000ca8 <ReadCCWButton+0x38>
 8000ca2:	2366      	movs	r3, #102	; 0x66
 8000ca4:	33ff      	adds	r3, #255	; 0xff
 8000ca6:	6023      	str	r3, [r4, #0]
		isPushCW = 0;
 8000ca8:	2200      	movs	r2, #0
		man_azimuth=man_azimuth-3;
 8000caa:	6823      	ldr	r3, [r4, #0]
  WRITE_REG(GPIOx->BSRR, PinMask);
 8000cac:	2602      	movs	r6, #2
 8000cae:	3b03      	subs	r3, #3
 8000cb0:	6023      	str	r3, [r4, #0]
		isPushCW = 0;
 8000cb2:	4b15      	ldr	r3, [pc, #84]	; (8000d08 <ReadCCWButton+0x98>)
		lcdGoto(LCD_2nd_LINE,13);
 8000cb4:	210d      	movs	r1, #13
		isPushCW = 0;
 8000cb6:	601a      	str	r2, [r3, #0]
 8000cb8:	23a0      	movs	r3, #160	; 0xa0
 8000cba:	05db      	lsls	r3, r3, #23
 8000cbc:	619e      	str	r6, [r3, #24]
		lcdGoto(LCD_2nd_LINE,13);
 8000cbe:	0030      	movs	r0, r6
 8000cc0:	f7ff fd3e 	bl	8000740 <lcdGoto>
		lcdPuts("   ");
 8000cc4:	4811      	ldr	r0, [pc, #68]	; (8000d0c <ReadCCWButton+0x9c>)
 8000cc6:	f7ff fd5c 	bl	8000782 <lcdPuts>
		lcdGoto(LCD_2nd_LINE,13);
 8000cca:	210d      	movs	r1, #13
 8000ccc:	0030      	movs	r0, r6
 8000cce:	f7ff fd37 	bl	8000740 <lcdGoto>
	    lcdItos(man_azimuth);
 8000cd2:	6820      	ldr	r0, [r4, #0]
 8000cd4:	f7ff fd7a 	bl	80007cc <lcdItos>
	    lcdGoto(LCD_2nd_LINE,16);
 8000cd8:	2110      	movs	r1, #16
 8000cda:	0030      	movs	r0, r6
 8000cdc:	f7ff fd30 	bl	8000740 <lcdGoto>
		time_key2_press = HAL_GetTick();
 8000ce0:	f000 fde4 	bl	80018ac <HAL_GetTick>
 8000ce4:	4b06      	ldr	r3, [pc, #24]	; (8000d00 <ReadCCWButton+0x90>)
 8000ce6:	6018      	str	r0, [r3, #0]
	if (!flag_key2_press && (HAL_GetTick() - time_key2_press) > 200) {
 8000ce8:	782b      	ldrb	r3, [r5, #0]
 8000cea:	2b00      	cmp	r3, #0
 8000cec:	d1d3      	bne.n	8000c96 <ReadCCWButton+0x26>
 8000cee:	e7cb      	b.n	8000c88 <ReadCCWButton+0x18>
		flag_key2_press = 1;
 8000cf0:	2301      	movs	r3, #1
 8000cf2:	702b      	strb	r3, [r5, #0]
}
 8000cf4:	e7cf      	b.n	8000c96 <ReadCCWButton+0x26>
 8000cf6:	46c0      	nop			; (mov r8, r8)
 8000cf8:	50000800 	.word	0x50000800
 8000cfc:	20000001 	.word	0x20000001
 8000d00:	2000009c 	.word	0x2000009c
 8000d04:	200000c0 	.word	0x200000c0
 8000d08:	200000f0 	.word	0x200000f0
 8000d0c:	080036cb 	.word	0x080036cb

08000d10 <ReadStartButton>:
void ReadStartButton() {
 8000d10:	b5f8      	push	{r3, r4, r5, r6, r7, lr}
	if (HAL_GPIO_ReadPin(BTN_START_GPIO_Port, BTN_START_Pin) == GPIO_PIN_RESET
 8000d12:	2102      	movs	r1, #2
 8000d14:	485b      	ldr	r0, [pc, #364]	; (8000e84 <ReadStartButton+0x174>)
 8000d16:	f000 ffbd 	bl	8001c94 <HAL_GPIO_ReadPin>
 8000d1a:	2800      	cmp	r0, #0
 8000d1c:	d000      	beq.n	8000d20 <ReadStartButton+0x10>
 8000d1e:	e075      	b.n	8000e0c <ReadStartButton+0xfc>
			&& flag_key3_press) {
 8000d20:	4b59      	ldr	r3, [pc, #356]	; (8000e88 <ReadStartButton+0x178>)
 8000d22:	781b      	ldrb	r3, [r3, #0]
 8000d24:	2b00      	cmp	r3, #0
 8000d26:	d108      	bne.n	8000d3a <ReadStartButton+0x2a>
	if (!flag_key3_press && (HAL_GetTick() - time_key3_press) > 200) {
 8000d28:	f000 fdc0 	bl	80018ac <HAL_GetTick>
 8000d2c:	4b57      	ldr	r3, [pc, #348]	; (8000e8c <ReadStartButton+0x17c>)
 8000d2e:	681b      	ldr	r3, [r3, #0]
 8000d30:	1ac0      	subs	r0, r0, r3
 8000d32:	28c8      	cmp	r0, #200	; 0xc8
 8000d34:	d900      	bls.n	8000d38 <ReadStartButton+0x28>
 8000d36:	e0a0      	b.n	8000e7a <ReadStartButton+0x16a>
}
 8000d38:	bdf8      	pop	{r3, r4, r5, r6, r7, pc}
		flag_key3_press = 0;
 8000d3a:	4b53      	ldr	r3, [pc, #332]	; (8000e88 <ReadStartButton+0x178>)
  WRITE_REG(TIMx->SR, ~(TIM_SR_UIF));
 8000d3c:	2202      	movs	r2, #2
 8000d3e:	7018      	strb	r0, [r3, #0]
 8000d40:	2380      	movs	r3, #128	; 0x80
 8000d42:	4252      	negs	r2, r2
 8000d44:	05db      	lsls	r3, r3, #23
 8000d46:	611a      	str	r2, [r3, #16]
  SET_BIT(TIMx->CR1, TIM_CR1_CEN);
 8000d48:	6819      	ldr	r1, [r3, #0]
 8000d4a:	3203      	adds	r2, #3
 8000d4c:	4311      	orrs	r1, r2
 8000d4e:	6019      	str	r1, [r3, #0]
  SET_BIT(TIMx->DIER, TIM_DIER_UIE);
 8000d50:	68d9      	ldr	r1, [r3, #12]
		if (dir_azimuth > dir_gradus) {
 8000d52:	4c4f      	ldr	r4, [pc, #316]	; (8000e90 <ReadStartButton+0x180>)
 8000d54:	4d4f      	ldr	r5, [pc, #316]	; (8000e94 <ReadStartButton+0x184>)
 8000d56:	430a      	orrs	r2, r1
 8000d58:	60da      	str	r2, [r3, #12]
 8000d5a:	6823      	ldr	r3, [r4, #0]
 8000d5c:	682a      	ldr	r2, [r5, #0]
 8000d5e:	4293      	cmp	r3, r2
 8000d60:	dd5a      	ble.n	8000e18 <ReadStartButton+0x108>
			time_on_cw = HAL_GetTick();
 8000d62:	f000 fda3 	bl	80018ac <HAL_GetTick>
  WRITE_REG(GPIOx->BRR, PinMask);
 8000d66:	27a0      	movs	r7, #160	; 0xa0
 8000d68:	4e4b      	ldr	r6, [pc, #300]	; (8000e98 <ReadStartButton+0x188>)
 8000d6a:	05ff      	lsls	r7, r7, #23
 8000d6c:	6030      	str	r0, [r6, #0]
			while (dir_gradus < dir_azimuth) {
 8000d6e:	682b      	ldr	r3, [r5, #0]
 8000d70:	6822      	ldr	r2, [r4, #0]
 8000d72:	4293      	cmp	r3, r2
 8000d74:	da20      	bge.n	8000db8 <ReadStartButton+0xa8>
				lcdGoto(LCD_1st_LINE, 13);
 8000d76:	210d      	movs	r1, #13
 8000d78:	2001      	movs	r0, #1
 8000d7a:	f7ff fce1 	bl	8000740 <lcdGoto>
				lcdPuts("   ");
 8000d7e:	4847      	ldr	r0, [pc, #284]	; (8000e9c <ReadStartButton+0x18c>)
 8000d80:	f7ff fcff 	bl	8000782 <lcdPuts>
				lcdGoto(LCD_1st_LINE, 13);
 8000d84:	210d      	movs	r1, #13
 8000d86:	2001      	movs	r0, #1
 8000d88:	f7ff fcda 	bl	8000740 <lcdGoto>
				lcdItos(gradus);
 8000d8c:	4b44      	ldr	r3, [pc, #272]	; (8000ea0 <ReadStartButton+0x190>)
 8000d8e:	6818      	ldr	r0, [r3, #0]
 8000d90:	f7ff fd1c 	bl	80007cc <lcdItos>
				lcdGoto(LCD_1st_LINE, 16);
 8000d94:	2110      	movs	r1, #16
 8000d96:	2001      	movs	r0, #1
 8000d98:	f7ff fcd2 	bl	8000740 <lcdGoto>
 8000d9c:	2302      	movs	r3, #2
 8000d9e:	62bb      	str	r3, [r7, #40]	; 0x28
  WRITE_REG(GPIOx->BSRR, PinMask);
 8000da0:	333e      	adds	r3, #62	; 0x3e
 8000da2:	61bb      	str	r3, [r7, #24]
				LL_mDelay(50);
 8000da4:	2032      	movs	r0, #50	; 0x32
 8000da6:	f002 f809 	bl	8002dbc <LL_mDelay>
				if ((HAL_GetTick() - time_on_cw) > 10000) break;
 8000daa:	f000 fd7f 	bl	80018ac <HAL_GetTick>
 8000dae:	6833      	ldr	r3, [r6, #0]
 8000db0:	1ac0      	subs	r0, r0, r3
 8000db2:	4b3c      	ldr	r3, [pc, #240]	; (8000ea4 <ReadStartButton+0x194>)
 8000db4:	4298      	cmp	r0, r3
 8000db6:	d9da      	bls.n	8000d6e <ReadStartButton+0x5e>
 8000db8:	23a0      	movs	r3, #160	; 0xa0
 8000dba:	2202      	movs	r2, #2
 8000dbc:	05db      	lsls	r3, r3, #23
 8000dbe:	619a      	str	r2, [r3, #24]
  WRITE_REG(GPIOx->BRR, PinMask);
 8000dc0:	323e      	adds	r2, #62	; 0x3e
 8000dc2:	629a      	str	r2, [r3, #40]	; 0x28
  CLEAR_BIT(TIMx->CR1, TIM_CR1_CEN);
 8000dc4:	2380      	movs	r3, #128	; 0x80
 8000dc6:	2101      	movs	r1, #1
 8000dc8:	05db      	lsls	r3, r3, #23
 8000dca:	681a      	ldr	r2, [r3, #0]
		lcdGoto(LCD_1st_LINE, 13);
 8000dcc:	2001      	movs	r0, #1
 8000dce:	438a      	bics	r2, r1
 8000dd0:	601a      	str	r2, [r3, #0]
  CLEAR_BIT(TIMx->DIER, TIM_DIER_UIE);
 8000dd2:	68da      	ldr	r2, [r3, #12]
 8000dd4:	438a      	bics	r2, r1
 8000dd6:	60da      	str	r2, [r3, #12]
 8000dd8:	210d      	movs	r1, #13
 8000dda:	f7ff fcb1 	bl	8000740 <lcdGoto>
		lcdPuts("   ");
 8000dde:	482f      	ldr	r0, [pc, #188]	; (8000e9c <ReadStartButton+0x18c>)
 8000de0:	f7ff fccf 	bl	8000782 <lcdPuts>
	    lcdGoto(LCD_1st_LINE, 13);
 8000de4:	210d      	movs	r1, #13
 8000de6:	2001      	movs	r0, #1
 8000de8:	f7ff fcaa 	bl	8000740 <lcdGoto>
		lcdItos(gradus);
 8000dec:	4b2c      	ldr	r3, [pc, #176]	; (8000ea0 <ReadStartButton+0x190>)
 8000dee:	6818      	ldr	r0, [r3, #0]
 8000df0:	f7ff fcec 	bl	80007cc <lcdItos>
		lcdGoto(LCD_1st_LINE, 16);
 8000df4:	2110      	movs	r1, #16
 8000df6:	2001      	movs	r0, #1
 8000df8:	f7ff fca2 	bl	8000740 <lcdGoto>
		ConvertGradusToChar(gradus);
 8000dfc:	4b28      	ldr	r3, [pc, #160]	; (8000ea0 <ReadStartButton+0x190>)
 8000dfe:	6818      	ldr	r0, [r3, #0]
 8000e00:	f7ff fd70 	bl	80008e4 <ConvertGradusToChar>
		time_key3_press = HAL_GetTick();
 8000e04:	f000 fd52 	bl	80018ac <HAL_GetTick>
 8000e08:	4b20      	ldr	r3, [pc, #128]	; (8000e8c <ReadStartButton+0x17c>)
 8000e0a:	6018      	str	r0, [r3, #0]
	if (!flag_key3_press && (HAL_GetTick() - time_key3_press) > 200) {
 8000e0c:	4b1e      	ldr	r3, [pc, #120]	; (8000e88 <ReadStartButton+0x178>)
 8000e0e:	781b      	ldrb	r3, [r3, #0]
 8000e10:	2b00      	cmp	r3, #0
 8000e12:	d000      	beq.n	8000e16 <ReadStartButton+0x106>
 8000e14:	e790      	b.n	8000d38 <ReadStartButton+0x28>
 8000e16:	e787      	b.n	8000d28 <ReadStartButton+0x18>
			time_on_ccw = HAL_GetTick();
 8000e18:	f000 fd48 	bl	80018ac <HAL_GetTick>
 8000e1c:	27a0      	movs	r7, #160	; 0xa0
 8000e1e:	4e22      	ldr	r6, [pc, #136]	; (8000ea8 <ReadStartButton+0x198>)
 8000e20:	05ff      	lsls	r7, r7, #23
 8000e22:	6030      	str	r0, [r6, #0]
			while (dir_gradus > dir_azimuth) {
 8000e24:	682b      	ldr	r3, [r5, #0]
 8000e26:	6822      	ldr	r2, [r4, #0]
 8000e28:	4293      	cmp	r3, r2
 8000e2a:	dd20      	ble.n	8000e6e <ReadStartButton+0x15e>
				lcdGoto(LCD_1st_LINE, 13);
 8000e2c:	210d      	movs	r1, #13
 8000e2e:	2001      	movs	r0, #1
 8000e30:	f7ff fc86 	bl	8000740 <lcdGoto>
				lcdPuts("   ");
 8000e34:	4819      	ldr	r0, [pc, #100]	; (8000e9c <ReadStartButton+0x18c>)
 8000e36:	f7ff fca4 	bl	8000782 <lcdPuts>
				lcdGoto(LCD_1st_LINE, 13);
 8000e3a:	210d      	movs	r1, #13
 8000e3c:	2001      	movs	r0, #1
 8000e3e:	f7ff fc7f 	bl	8000740 <lcdGoto>
				lcdItos(gradus);
 8000e42:	4b17      	ldr	r3, [pc, #92]	; (8000ea0 <ReadStartButton+0x190>)
 8000e44:	6818      	ldr	r0, [r3, #0]
 8000e46:	f7ff fcc1 	bl	80007cc <lcdItos>
				lcdGoto(LCD_1st_LINE, 16);
 8000e4a:	2110      	movs	r1, #16
 8000e4c:	2001      	movs	r0, #1
 8000e4e:	f7ff fc77 	bl	8000740 <lcdGoto>
 8000e52:	2302      	movs	r3, #2
 8000e54:	62bb      	str	r3, [r7, #40]	; 0x28
  WRITE_REG(GPIOx->BSRR, PinMask);
 8000e56:	337e      	adds	r3, #126	; 0x7e
 8000e58:	61bb      	str	r3, [r7, #24]
				LL_mDelay(50);
 8000e5a:	2032      	movs	r0, #50	; 0x32
 8000e5c:	f001 ffae 	bl	8002dbc <LL_mDelay>
				if ((HAL_GetTick() - time_on_ccw) > 10000) break;
 8000e60:	f000 fd24 	bl	80018ac <HAL_GetTick>
 8000e64:	6833      	ldr	r3, [r6, #0]
 8000e66:	1ac0      	subs	r0, r0, r3
 8000e68:	4b0e      	ldr	r3, [pc, #56]	; (8000ea4 <ReadStartButton+0x194>)
 8000e6a:	4298      	cmp	r0, r3
 8000e6c:	d9da      	bls.n	8000e24 <ReadStartButton+0x114>
 8000e6e:	23a0      	movs	r3, #160	; 0xa0
 8000e70:	2202      	movs	r2, #2
 8000e72:	05db      	lsls	r3, r3, #23
 8000e74:	619a      	str	r2, [r3, #24]
  WRITE_REG(GPIOx->BRR, PinMask);
 8000e76:	327e      	adds	r2, #126	; 0x7e
 8000e78:	e7a3      	b.n	8000dc2 <ReadStartButton+0xb2>
		flag_key3_press = 1;
 8000e7a:	2301      	movs	r3, #1
 8000e7c:	4a02      	ldr	r2, [pc, #8]	; (8000e88 <ReadStartButton+0x178>)
 8000e7e:	7013      	strb	r3, [r2, #0]
}
 8000e80:	e75a      	b.n	8000d38 <ReadStartButton+0x28>
 8000e82:	46c0      	nop			; (mov r8, r8)
 8000e84:	50000400 	.word	0x50000400
 8000e88:	20000002 	.word	0x20000002
 8000e8c:	200000a0 	.word	0x200000a0
 8000e90:	200000cc 	.word	0x200000cc
 8000e94:	200000bc 	.word	0x200000bc
 8000e98:	200000b4 	.word	0x200000b4
 8000e9c:	080036cb 	.word	0x080036cb
 8000ea0:	200000dc 	.word	0x200000dc
 8000ea4:	00002710 	.word	0x00002710
 8000ea8:	200000c8 	.word	0x200000c8

08000eac <WriteToEEPROM>:
{
 8000eac:	b570      	push	{r4, r5, r6, lr}
 8000eae:	0004      	movs	r4, r0
 8000eb0:	000d      	movs	r5, r1
    flash_ok = HAL_FLASHEx_DATAEEPROM_Unlock();
 8000eb2:	f000 fde9 	bl	8001a88 <HAL_FLASHEx_DATAEEPROM_Unlock>
  while (flash_ok != HAL_OK)
 8000eb6:	2800      	cmp	r0, #0
 8000eb8:	d1fb      	bne.n	8000eb2 <WriteToEEPROM+0x6>
    flash_ok = HAL_FLASHEx_DATAEEPROM_Erase (address);
 8000eba:	0020      	movs	r0, r4
 8000ebc:	f000 fe06 	bl	8001acc <HAL_FLASHEx_DATAEEPROM_Erase>
  while (flash_ok != HAL_OK)
 8000ec0:	2800      	cmp	r0, #0
 8000ec2:	d1fa      	bne.n	8000eba <WriteToEEPROM+0xe>
    flash_ok = HAL_FLASHEx_DATAEEPROM_Program (FLASH_TYPEPROGRAMDATA_WORD, address, value);
 8000ec4:	002a      	movs	r2, r5
 8000ec6:	0021      	movs	r1, r4
 8000ec8:	2002      	movs	r0, #2
 8000eca:	f000 fe11 	bl	8001af0 <HAL_FLASHEx_DATAEEPROM_Program>
  while (flash_ok != HAL_OK)
 8000ece:	2800      	cmp	r0, #0
 8000ed0:	d1f8      	bne.n	8000ec4 <WriteToEEPROM+0x18>
    flash_ok = HAL_FLASHEx_DATAEEPROM_Lock ();
 8000ed2:	f000 fdf1 	bl	8001ab8 <HAL_FLASHEx_DATAEEPROM_Lock>
  while (flash_ok != HAL_OK)
 8000ed6:	2800      	cmp	r0, #0
 8000ed8:	d1fb      	bne.n	8000ed2 <WriteToEEPROM+0x26>
}
 8000eda:	bd70      	pop	{r4, r5, r6, pc}

08000edc <SetDefault>:
void SetDefault(){
 8000edc:	b510      	push	{r4, lr}
		LL_mDelay(300);
 8000ede:	2496      	movs	r4, #150	; 0x96
 8000ee0:	0064      	lsls	r4, r4, #1
	while (HAL_GPIO_ReadPin(BTN_START_GPIO_Port, BTN_START_Pin) == GPIO_PIN_RESET){
 8000ee2:	2102      	movs	r1, #2
 8000ee4:	4811      	ldr	r0, [pc, #68]	; (8000f2c <SetDefault+0x50>)
 8000ee6:	f000 fed5 	bl	8001c94 <HAL_GPIO_ReadPin>
 8000eea:	2800      	cmp	r0, #0
 8000eec:	d00c      	beq.n	8000f08 <SetDefault+0x2c>
	gradus = man_azimuth = 0;
 8000eee:	2100      	movs	r1, #0
 8000ef0:	4c0f      	ldr	r4, [pc, #60]	; (8000f30 <SetDefault+0x54>)
 8000ef2:	4b10      	ldr	r3, [pc, #64]	; (8000f34 <SetDefault+0x58>)
	WriteToEEPROM(EEPROM_ADDRESS_START, gradus);
 8000ef4:	4810      	ldr	r0, [pc, #64]	; (8000f38 <SetDefault+0x5c>)
	gradus = man_azimuth = 0;
 8000ef6:	6019      	str	r1, [r3, #0]
 8000ef8:	6021      	str	r1, [r4, #0]
	WriteToEEPROM(EEPROM_ADDRESS_START, gradus);
 8000efa:	f7ff ffd7 	bl	8000eac <WriteToEEPROM>
    WriteToEEPROM(EEPROM_ADDRESS_START+sizeof(gradus), man_azimuth);
 8000efe:	6821      	ldr	r1, [r4, #0]
 8000f00:	480e      	ldr	r0, [pc, #56]	; (8000f3c <SetDefault+0x60>)
 8000f02:	f7ff ffd3 	bl	8000eac <WriteToEEPROM>
}
 8000f06:	bd10      	pop	{r4, pc}
		lcdClrScr();
 8000f08:	f7ff fc00 	bl	800070c <lcdClrScr>
		lcdGoto(LCD_1st_LINE, 3);
 8000f0c:	2103      	movs	r1, #3
 8000f0e:	2001      	movs	r0, #1
 8000f10:	f7ff fc16 	bl	8000740 <lcdGoto>
		lcdPuts("GO TO ZERO");
 8000f14:	480a      	ldr	r0, [pc, #40]	; (8000f40 <SetDefault+0x64>)
 8000f16:	f7ff fc34 	bl	8000782 <lcdPuts>
		lcdGoto(LCD_2nd_LINE, 16);
 8000f1a:	2110      	movs	r1, #16
 8000f1c:	2002      	movs	r0, #2
 8000f1e:	f7ff fc0f 	bl	8000740 <lcdGoto>
		LL_mDelay(300);
 8000f22:	0020      	movs	r0, r4
 8000f24:	f001 ff4a 	bl	8002dbc <LL_mDelay>
 8000f28:	e7db      	b.n	8000ee2 <SetDefault+0x6>
 8000f2a:	46c0      	nop			; (mov r8, r8)
 8000f2c:	50000400 	.word	0x50000400
 8000f30:	200000c0 	.word	0x200000c0
 8000f34:	200000dc 	.word	0x200000dc
 8000f38:	08080000 	.word	0x08080000
 8000f3c:	08080004 	.word	0x08080004
 8000f40:	080036e7 	.word	0x080036e7

08000f44 <SaveSettings>:
	WriteToEEPROM(EEPROM_ADDRESS_START, gradus);
 8000f44:	4b05      	ldr	r3, [pc, #20]	; (8000f5c <SaveSettings+0x18>)
{
 8000f46:	b510      	push	{r4, lr}
	WriteToEEPROM(EEPROM_ADDRESS_START, gradus);
 8000f48:	6819      	ldr	r1, [r3, #0]
 8000f4a:	4805      	ldr	r0, [pc, #20]	; (8000f60 <SaveSettings+0x1c>)
 8000f4c:	f7ff ffae 	bl	8000eac <WriteToEEPROM>
	WriteToEEPROM(EEPROM_ADDRESS_START+sizeof(gradus), man_azimuth);
 8000f50:	4b04      	ldr	r3, [pc, #16]	; (8000f64 <SaveSettings+0x20>)
 8000f52:	4805      	ldr	r0, [pc, #20]	; (8000f68 <SaveSettings+0x24>)
 8000f54:	6819      	ldr	r1, [r3, #0]
 8000f56:	f7ff ffa9 	bl	8000eac <WriteToEEPROM>
}
 8000f5a:	bd10      	pop	{r4, pc}
 8000f5c:	200000dc 	.word	0x200000dc
 8000f60:	08080000 	.word	0x08080000
 8000f64:	200000c0 	.word	0x200000c0
 8000f68:	08080004 	.word	0x08080004

08000f6c <CheckADC>:
__STATIC_INLINE void LL_ADC_Enable(ADC_TypeDef *ADCx)
{
  /* Note: Write register with some additional bits forced to state reset     */
  /*       instead of modifying only the selected bit for this function,      */
  /*       to not interfere with bits with HW property "rs".                  */
  MODIFY_REG(ADCx->CR,
 8000f6c:	2001      	movs	r0, #1
{
 8000f6e:	b5f8      	push	{r3, r4, r5, r6, r7, lr}
 8000f70:	4c17      	ldr	r4, [pc, #92]	; (8000fd0 <CheckADC+0x64>)
 8000f72:	4a18      	ldr	r2, [pc, #96]	; (8000fd4 <CheckADC+0x68>)
 8000f74:	68a3      	ldr	r3, [r4, #8]
 8000f76:	4013      	ands	r3, r2
 8000f78:	4303      	orrs	r3, r0
 8000f7a:	60a3      	str	r3, [r4, #8]
__STATIC_INLINE void LL_ADC_REG_StartConversion(ADC_TypeDef *ADCx)
{
  /* Note: Write register with some additional bits forced to state reset     */
  /*       instead of modifying only the selected bit for this function,      */
  /*       to not interfere with bits with HW property "rs".                  */
  MODIFY_REG(ADCx->CR,
 8000f7c:	68a3      	ldr	r3, [r4, #8]
 8000f7e:	401a      	ands	r2, r3
 8000f80:	2304      	movs	r3, #4
 8000f82:	4313      	orrs	r3, r2
 8000f84:	60a3      	str	r3, [r4, #8]
    LL_mDelay(1);
 8000f86:	f001 ff19 	bl	8002dbc <LL_mDelay>
  * @param  ADCx ADC instance
  * @retval Value between Min_Data=0x000 and Max_Data=0xFFF
  */
__STATIC_INLINE uint16_t LL_ADC_REG_ReadConversionData12(ADC_TypeDef *ADCx)
{
  return (uint16_t)(READ_BIT(ADCx->DR, ADC_DR_DATA));
 8000f8a:	6c23      	ldr	r3, [r4, #64]	; 0x40
    if ((adc_value < 3500)&&(flag_adc == 0)) {
 8000f8c:	4a12      	ldr	r2, [pc, #72]	; (8000fd8 <CheckADC+0x6c>)
    adc_value = LL_ADC_REG_ReadConversionData12(ADC1);
 8000f8e:	4c13      	ldr	r4, [pc, #76]	; (8000fdc <CheckADC+0x70>)
 8000f90:	b29b      	uxth	r3, r3
 8000f92:	8023      	strh	r3, [r4, #0]
    if ((adc_value < 3500)&&(flag_adc == 0)) {
 8000f94:	4293      	cmp	r3, r2
 8000f96:	d80e      	bhi.n	8000fb6 <CheckADC+0x4a>
 8000f98:	4d11      	ldr	r5, [pc, #68]	; (8000fe0 <CheckADC+0x74>)
 8000f9a:	782f      	ldrb	r7, [r5, #0]
 8000f9c:	2f00      	cmp	r7, #0
 8000f9e:	d116      	bne.n	8000fce <CheckADC+0x62>
    	if (flag_eeprom==1){
 8000fa0:	4e10      	ldr	r6, [pc, #64]	; (8000fe4 <CheckADC+0x78>)
 8000fa2:	7833      	ldrb	r3, [r6, #0]
 8000fa4:	2b01      	cmp	r3, #1
 8000fa6:	d102      	bne.n	8000fae <CheckADC+0x42>
    		SaveSettings();
 8000fa8:	f7ff ffcc 	bl	8000f44 <SaveSettings>
    		flag_eeprom=0;
 8000fac:	7037      	strb	r7, [r6, #0]
    	flag_adc = 1;
 8000fae:	2301      	movs	r3, #1
 8000fb0:	702b      	strb	r3, [r5, #0]
    	ShowWarning();
 8000fb2:	f7ff fc65 	bl	8000880 <ShowWarning>
    if ((adc_value > 3500)&&(flag_adc == 1)) {
 8000fb6:	4b0c      	ldr	r3, [pc, #48]	; (8000fe8 <CheckADC+0x7c>)
 8000fb8:	8822      	ldrh	r2, [r4, #0]
 8000fba:	429a      	cmp	r2, r3
 8000fbc:	d907      	bls.n	8000fce <CheckADC+0x62>
 8000fbe:	4c08      	ldr	r4, [pc, #32]	; (8000fe0 <CheckADC+0x74>)
 8000fc0:	7823      	ldrb	r3, [r4, #0]
 8000fc2:	2b01      	cmp	r3, #1
 8000fc4:	d103      	bne.n	8000fce <CheckADC+0x62>
    	ShowStartAzimuth();
 8000fc6:	f7ff fdd5 	bl	8000b74 <ShowStartAzimuth>
    	flag_adc = 0;
 8000fca:	2300      	movs	r3, #0
 8000fcc:	7023      	strb	r3, [r4, #0]
}
 8000fce:	bdf8      	pop	{r3, r4, r5, r6, r7, pc}
 8000fd0:	40012400 	.word	0x40012400
 8000fd4:	7fffffe8 	.word	0x7fffffe8
 8000fd8:	00000dab 	.word	0x00000dab
 8000fdc:	20000092 	.word	0x20000092
 8000fe0:	20000094 	.word	0x20000094
 8000fe4:	20000095 	.word	0x20000095
 8000fe8:	00000dac 	.word	0x00000dac

08000fec <SystemClock_Config>:
/**
  * @brief System Clock Configuration
  * @retval None
  */
void SystemClock_Config(void)
{
 8000fec:	b510      	push	{r4, lr}
 8000fee:	b098      	sub	sp, #96	; 0x60
  RCC_OscInitTypeDef RCC_OscInitStruct = {0};
 8000ff0:	2220      	movs	r2, #32
 8000ff2:	2100      	movs	r1, #0
 8000ff4:	a80c      	add	r0, sp, #48	; 0x30
 8000ff6:	f001 ff21 	bl	8002e3c <memset>
  RCC_ClkInitTypeDef RCC_ClkInitStruct = {0};
 8000ffa:	2214      	movs	r2, #20
 8000ffc:	2100      	movs	r1, #0
 8000ffe:	4668      	mov	r0, sp
 8001000:	f001 ff1c 	bl	8002e3c <memset>
  RCC_PeriphCLKInitTypeDef PeriphClkInit = {0};
 8001004:	2218      	movs	r2, #24
 8001006:	2100      	movs	r1, #0
 8001008:	a805      	add	r0, sp, #20
 800100a:	f001 ff17 	bl	8002e3c <memset>

  /** Configure the main internal regulator output voltage
  */
  __HAL_PWR_VOLTAGESCALING_CONFIG(PWR_REGULATOR_VOLTAGE_SCALE1);
 800100e:	491e      	ldr	r1, [pc, #120]	; (8001088 <SystemClock_Config+0x9c>)
 8001010:	4a1e      	ldr	r2, [pc, #120]	; (800108c <SystemClock_Config+0xa0>)
 8001012:	680b      	ldr	r3, [r1, #0]
  /** Initializes the RCC Oscillators according to the specified parameters
  * in the RCC_OscInitTypeDef structure.
  */
  RCC_OscInitStruct.OscillatorType = RCC_OSCILLATORTYPE_HSI|RCC_OSCILLATORTYPE_LSE;
  RCC_OscInitStruct.LSEState = RCC_LSE_OFF;
  RCC_OscInitStruct.HSIState = RCC_HSI_ON;
 8001014:	2401      	movs	r4, #1
  __HAL_PWR_VOLTAGESCALING_CONFIG(PWR_REGULATOR_VOLTAGE_SCALE1);
 8001016:	401a      	ands	r2, r3
 8001018:	2380      	movs	r3, #128	; 0x80
 800101a:	011b      	lsls	r3, r3, #4
 800101c:	4313      	orrs	r3, r2
 800101e:	600b      	str	r3, [r1, #0]
  RCC_OscInitStruct.OscillatorType = RCC_OSCILLATORTYPE_HSI|RCC_OSCILLATORTYPE_LSE;
 8001020:	2306      	movs	r3, #6
 8001022:	930b      	str	r3, [sp, #44]	; 0x2c
  RCC_OscInitStruct.LSEState = RCC_LSE_OFF;
 8001024:	2300      	movs	r3, #0
 8001026:	930d      	str	r3, [sp, #52]	; 0x34
  RCC_OscInitStruct.HSICalibrationValue = RCC_HSICALIBRATION_DEFAULT;
  RCC_OscInitStruct.PLL.PLLState = RCC_PLL_ON;
  RCC_OscInitStruct.PLL.PLLSource = RCC_PLLSOURCE_HSI;
 8001028:	9315      	str	r3, [sp, #84]	; 0x54
  RCC_OscInitStruct.PLL.PLLMUL = RCC_PLLMUL_4;
 800102a:	2380      	movs	r3, #128	; 0x80
 800102c:	02db      	lsls	r3, r3, #11
  RCC_OscInitStruct.HSICalibrationValue = RCC_HSICALIBRATION_DEFAULT;
 800102e:	2210      	movs	r2, #16
  RCC_OscInitStruct.PLL.PLLMUL = RCC_PLLMUL_4;
 8001030:	9316      	str	r3, [sp, #88]	; 0x58
  RCC_OscInitStruct.PLL.PLLDIV = RCC_PLLDIV_2;
 8001032:	2380      	movs	r3, #128	; 0x80
  RCC_OscInitStruct.HSICalibrationValue = RCC_HSICALIBRATION_DEFAULT;
 8001034:	920f      	str	r2, [sp, #60]	; 0x3c
  RCC_OscInitStruct.PLL.PLLDIV = RCC_PLLDIV_2;
 8001036:	03db      	lsls	r3, r3, #15
  RCC_OscInitStruct.PLL.PLLState = RCC_PLL_ON;
 8001038:	3a0e      	subs	r2, #14
  if (HAL_RCC_OscConfig(&RCC_OscInitStruct) != HAL_OK)
 800103a:	a80b      	add	r0, sp, #44	; 0x2c
  RCC_OscInitStruct.HSIState = RCC_HSI_ON;
 800103c:	940e      	str	r4, [sp, #56]	; 0x38
  RCC_OscInitStruct.PLL.PLLState = RCC_PLL_ON;
 800103e:	9214      	str	r2, [sp, #80]	; 0x50
  RCC_OscInitStruct.PLL.PLLDIV = RCC_PLLDIV_2;
 8001040:	9317      	str	r3, [sp, #92]	; 0x5c
  if (HAL_RCC_OscConfig(&RCC_OscInitStruct) != HAL_OK)
 8001042:	f001 f925 	bl	8002290 <HAL_RCC_OscConfig>
 8001046:	2800      	cmp	r0, #0
 8001048:	d001      	beq.n	800104e <SystemClock_Config+0x62>
  \details Disables IRQ interrupts by setting the I-bit in the CPSR.
           Can only be executed in Privileged modes.
 */
__STATIC_FORCEINLINE void __disable_irq(void)
{
  __ASM volatile ("cpsid i" : : : "memory");
 800104a:	b672      	cpsid	i
void Error_Handler(void)
{
  /* USER CODE BEGIN Error_Handler_Debug */
  /* User can add his own implementation to report the HAL error return state */
  __disable_irq();
  while (1)
 800104c:	e7fe      	b.n	800104c <SystemClock_Config+0x60>
  RCC_ClkInitStruct.ClockType = RCC_CLOCKTYPE_HCLK|RCC_CLOCKTYPE_SYSCLK
 800104e:	230f      	movs	r3, #15
  RCC_ClkInitStruct.AHBCLKDivider = RCC_SYSCLK_DIV1;
 8001050:	9002      	str	r0, [sp, #8]
  RCC_ClkInitStruct.ClockType = RCC_CLOCKTYPE_HCLK|RCC_CLOCKTYPE_SYSCLK
 8001052:	9300      	str	r3, [sp, #0]
  RCC_ClkInitStruct.APB1CLKDivider = RCC_HCLK_DIV1;
 8001054:	9003      	str	r0, [sp, #12]
  RCC_ClkInitStruct.SYSCLKSource = RCC_SYSCLKSOURCE_PLLCLK;
 8001056:	3b0c      	subs	r3, #12
  RCC_ClkInitStruct.APB2CLKDivider = RCC_HCLK_DIV1;
 8001058:	9004      	str	r0, [sp, #16]
  if (HAL_RCC_ClockConfig(&RCC_ClkInitStruct, FLASH_LATENCY_1) != HAL_OK)
 800105a:	0021      	movs	r1, r4
 800105c:	4668      	mov	r0, sp
  RCC_ClkInitStruct.SYSCLKSource = RCC_SYSCLKSOURCE_PLLCLK;
 800105e:	9301      	str	r3, [sp, #4]
  if (HAL_RCC_ClockConfig(&RCC_ClkInitStruct, FLASH_LATENCY_1) != HAL_OK)
 8001060:	f001 fb66 	bl	8002730 <HAL_RCC_ClockConfig>
 8001064:	2800      	cmp	r0, #0
 8001066:	d001      	beq.n	800106c <SystemClock_Config+0x80>
 8001068:	b672      	cpsid	i
  while (1)
 800106a:	e7fe      	b.n	800106a <SystemClock_Config+0x7e>
  PeriphClkInit.PeriphClockSelection = RCC_PERIPHCLK_USART2|RCC_PERIPHCLK_I2C1;
 800106c:	230a      	movs	r3, #10
  PeriphClkInit.Usart2ClockSelection = RCC_USART2CLKSOURCE_PCLK1;
 800106e:	9007      	str	r0, [sp, #28]
  PeriphClkInit.I2c1ClockSelection = RCC_I2C1CLKSOURCE_PCLK1;
 8001070:	9009      	str	r0, [sp, #36]	; 0x24
  if (HAL_RCCEx_PeriphCLKConfig(&PeriphClkInit) != HAL_OK)
 8001072:	a805      	add	r0, sp, #20
  PeriphClkInit.PeriphClockSelection = RCC_PERIPHCLK_USART2|RCC_PERIPHCLK_I2C1;
 8001074:	9305      	str	r3, [sp, #20]
  if (HAL_RCCEx_PeriphCLKConfig(&PeriphClkInit) != HAL_OK)
 8001076:	f001 fc29 	bl	80028cc <HAL_RCCEx_PeriphCLKConfig>
 800107a:	2800      	cmp	r0, #0
 800107c:	d001      	beq.n	8001082 <SystemClock_Config+0x96>
 800107e:	b672      	cpsid	i
  while (1)
 8001080:	e7fe      	b.n	8001080 <SystemClock_Config+0x94>
}
 8001082:	b018      	add	sp, #96	; 0x60
 8001084:	bd10      	pop	{r4, pc}
 8001086:	46c0      	nop			; (mov r8, r8)
 8001088:	40007000 	.word	0x40007000
 800108c:	ffffe7ff 	.word	0xffffe7ff

08001090 <main>:
{
 8001090:	b5f0      	push	{r4, r5, r6, r7, lr}
 8001092:	b097      	sub	sp, #92	; 0x5c
  LL_GPIO_InitTypeDef GPIO_InitStruct = {0};
 8001094:	ac0f      	add	r4, sp, #60	; 0x3c
  HAL_Init();
 8001096:	f000 fbe9 	bl	800186c <HAL_Init>
  SystemClock_Config();
 800109a:	f7ff ffa7 	bl	8000fec <SystemClock_Config>
  LL_GPIO_InitTypeDef GPIO_InitStruct = {0};
 800109e:	2218      	movs	r2, #24
 80010a0:	2100      	movs	r1, #0
 80010a2:	0020      	movs	r0, r4
 80010a4:	f001 feca 	bl	8002e3c <memset>
  LL_IOP_GRP1_EnableClock(LL_IOP_GRP1_PERIPH_GPIOC);
 80010a8:	2004      	movs	r0, #4
 80010aa:	f7ff fbdb 	bl	8000864 <LL_IOP_GRP1_EnableClock>
  LL_IOP_GRP1_EnableClock(LL_IOP_GRP1_PERIPH_GPIOA);
 80010ae:	2001      	movs	r0, #1
 80010b0:	f7ff fbd8 	bl	8000864 <LL_IOP_GRP1_EnableClock>
  LL_IOP_GRP1_EnableClock(LL_IOP_GRP1_PERIPH_GPIOB);
 80010b4:	2002      	movs	r0, #2
 80010b6:	f7ff fbd5 	bl	8000864 <LL_IOP_GRP1_EnableClock>
  WRITE_REG(GPIOx->BSRR, PinMask);
 80010ba:	23a0      	movs	r3, #160	; 0xa0
 80010bc:	2202      	movs	r2, #2
  WRITE_REG(GPIOx->BRR, PinMask);
 80010be:	2640      	movs	r6, #64	; 0x40
 80010c0:	2120      	movs	r1, #32
 80010c2:	2080      	movs	r0, #128	; 0x80
  WRITE_REG(GPIOx->BSRR, PinMask);
 80010c4:	05db      	lsls	r3, r3, #23
 80010c6:	619a      	str	r2, [r3, #24]
  WRITE_REG(GPIOx->BRR, PinMask);
 80010c8:	6299      	str	r1, [r3, #40]	; 0x28
 80010ca:	629e      	str	r6, [r3, #40]	; 0x28
 80010cc:	6298      	str	r0, [r3, #40]	; 0x28
  GPIO_InitStruct.Pin = BTN_UP_Pin;
 80010ce:	2380      	movs	r3, #128	; 0x80
 80010d0:	01db      	lsls	r3, r3, #7
  GPIO_InitStruct.Mode = LL_GPIO_MODE_INPUT;
 80010d2:	2500      	movs	r5, #0
  GPIO_InitStruct.Pin = BTN_UP_Pin;
 80010d4:	930f      	str	r3, [sp, #60]	; 0x3c
  GPIO_InitStruct.Pull = LL_GPIO_PULL_UP;
 80010d6:	2301      	movs	r3, #1
  LL_GPIO_Init(BTN_UP_GPIO_Port, &GPIO_InitStruct);
 80010d8:	0021      	movs	r1, r4
  GPIO_InitStruct.Pin = BTN_DWN_Pin;
 80010da:	2780      	movs	r7, #128	; 0x80
  LL_GPIO_Init(BTN_UP_GPIO_Port, &GPIO_InitStruct);
 80010dc:	4833      	ldr	r0, [pc, #204]	; (80011ac <main+0x11c>)
  GPIO_InitStruct.Pull = LL_GPIO_PULL_UP;
 80010de:	6123      	str	r3, [r4, #16]
  GPIO_InitStruct.Mode = LL_GPIO_MODE_INPUT;
 80010e0:	6065      	str	r5, [r4, #4]
  LL_GPIO_Init(BTN_UP_GPIO_Port, &GPIO_InitStruct);
 80010e2:	f001 fce5 	bl	8002ab0 <LL_GPIO_Init>
  GPIO_InitStruct.Pull = LL_GPIO_PULL_UP;
 80010e6:	2301      	movs	r3, #1
  LL_GPIO_Init(BTN_DWN_GPIO_Port, &GPIO_InitStruct);
 80010e8:	0021      	movs	r1, r4
 80010ea:	4830      	ldr	r0, [pc, #192]	; (80011ac <main+0x11c>)
  GPIO_InitStruct.Pin = BTN_DWN_Pin;
 80010ec:	023f      	lsls	r7, r7, #8
  GPIO_InitStruct.Pull = LL_GPIO_PULL_UP;
 80010ee:	6123      	str	r3, [r4, #16]
  GPIO_InitStruct.Pin = BTN_DWN_Pin;
 80010f0:	970f      	str	r7, [sp, #60]	; 0x3c
  GPIO_InitStruct.Mode = LL_GPIO_MODE_INPUT;
 80010f2:	6065      	str	r5, [r4, #4]
  LL_GPIO_Init(BTN_DWN_GPIO_Port, &GPIO_InitStruct);
 80010f4:	f001 fcdc 	bl	8002ab0 <LL_GPIO_Init>
  LL_GPIO_Init(OE_GPIO_Port, &GPIO_InitStruct);
 80010f8:	20a0      	movs	r0, #160	; 0xa0
  GPIO_InitStruct.Pin = OE_Pin;
 80010fa:	2202      	movs	r2, #2
  GPIO_InitStruct.Mode = LL_GPIO_MODE_OUTPUT;
 80010fc:	2301      	movs	r3, #1
  LL_GPIO_Init(OE_GPIO_Port, &GPIO_InitStruct);
 80010fe:	0021      	movs	r1, r4
 8001100:	05c0      	lsls	r0, r0, #23
  GPIO_InitStruct.Pin = OE_Pin;
 8001102:	920f      	str	r2, [sp, #60]	; 0x3c
  GPIO_InitStruct.Mode = LL_GPIO_MODE_OUTPUT;
 8001104:	6063      	str	r3, [r4, #4]
  GPIO_InitStruct.Speed = LL_GPIO_SPEED_FREQ_LOW;
 8001106:	60a5      	str	r5, [r4, #8]
  GPIO_InitStruct.OutputType = LL_GPIO_OUTPUT_PUSHPULL;
 8001108:	60e5      	str	r5, [r4, #12]
  GPIO_InitStruct.Pull = LL_GPIO_PULL_NO;
 800110a:	6125      	str	r5, [r4, #16]
  LL_GPIO_Init(OE_GPIO_Port, &GPIO_InitStruct);
 800110c:	f001 fcd0 	bl	8002ab0 <LL_GPIO_Init>
  GPIO_InitStruct.Pin = LED_Pin;
 8001110:	2120      	movs	r1, #32
  LL_GPIO_Init(LED_GPIO_Port, &GPIO_InitStruct);
 8001112:	20a0      	movs	r0, #160	; 0xa0
  GPIO_InitStruct.Mode = LL_GPIO_MODE_OUTPUT;
 8001114:	2301      	movs	r3, #1
  GPIO_InitStruct.Pin = LED_Pin;
 8001116:	910f      	str	r1, [sp, #60]	; 0x3c
  LL_GPIO_Init(LED_GPIO_Port, &GPIO_InitStruct);
 8001118:	05c0      	lsls	r0, r0, #23
 800111a:	0021      	movs	r1, r4
  GPIO_InitStruct.Mode = LL_GPIO_MODE_OUTPUT;
 800111c:	6063      	str	r3, [r4, #4]
  GPIO_InitStruct.Speed = LL_GPIO_SPEED_FREQ_LOW;
 800111e:	60a5      	str	r5, [r4, #8]
  GPIO_InitStruct.OutputType = LL_GPIO_OUTPUT_PUSHPULL;
 8001120:	60e5      	str	r5, [r4, #12]
  GPIO_InitStruct.Pull = LL_GPIO_PULL_NO;
 8001122:	6125      	str	r5, [r4, #16]
  LL_GPIO_Init(LED_GPIO_Port, &GPIO_InitStruct);
 8001124:	f001 fcc4 	bl	8002ab0 <LL_GPIO_Init>
  LL_GPIO_Init(CW_GPIO_Port, &GPIO_InitStruct);
 8001128:	20a0      	movs	r0, #160	; 0xa0
 800112a:	0021      	movs	r1, r4
  GPIO_InitStruct.Pin = CW_Pin;
 800112c:	960f      	str	r6, [sp, #60]	; 0x3c
  LL_GPIO_Init(CW_GPIO_Port, &GPIO_InitStruct);
 800112e:	05c0      	lsls	r0, r0, #23
  GPIO_InitStruct.Mode = LL_GPIO_MODE_OUTPUT;
 8001130:	3e3f      	subs	r6, #63	; 0x3f
 8001132:	6066      	str	r6, [r4, #4]
  GPIO_InitStruct.Speed = LL_GPIO_SPEED_FREQ_LOW;
 8001134:	60a5      	str	r5, [r4, #8]
  GPIO_InitStruct.OutputType = LL_GPIO_OUTPUT_PUSHPULL;
 8001136:	60e5      	str	r5, [r4, #12]
  GPIO_InitStruct.Pull = LL_GPIO_PULL_NO;
 8001138:	6125      	str	r5, [r4, #16]
  LL_GPIO_Init(CW_GPIO_Port, &GPIO_InitStruct);
 800113a:	f001 fcb9 	bl	8002ab0 <LL_GPIO_Init>
  GPIO_InitStruct.Pin = CCW_Pin;
 800113e:	2080      	movs	r0, #128	; 0x80
 8001140:	900f      	str	r0, [sp, #60]	; 0x3c
  LL_GPIO_Init(CCW_GPIO_Port, &GPIO_InitStruct);
 8001142:	20a0      	movs	r0, #160	; 0xa0
 8001144:	0021      	movs	r1, r4
 8001146:	05c0      	lsls	r0, r0, #23
  GPIO_InitStruct.Mode = LL_GPIO_MODE_OUTPUT;
 8001148:	6066      	str	r6, [r4, #4]
  GPIO_InitStruct.Speed = LL_GPIO_SPEED_FREQ_LOW;
 800114a:	60a5      	str	r5, [r4, #8]
  GPIO_InitStruct.OutputType = LL_GPIO_OUTPUT_PUSHPULL;
 800114c:	60e5      	str	r5, [r4, #12]
  GPIO_InitStruct.Pull = LL_GPIO_PULL_NO;
 800114e:	6125      	str	r5, [r4, #16]
  LL_GPIO_Init(CCW_GPIO_Port, &GPIO_InitStruct);
 8001150:	f001 fcae 	bl	8002ab0 <LL_GPIO_Init>
  GPIO_InitStruct.Pin = BTN_START_Pin;
 8001154:	2202      	movs	r2, #2
  LL_GPIO_Init(BTN_START_GPIO_Port, &GPIO_InitStruct);
 8001156:	0021      	movs	r1, r4
 8001158:	4815      	ldr	r0, [pc, #84]	; (80011b0 <main+0x120>)
  GPIO_InitStruct.Pin = BTN_START_Pin;
 800115a:	920f      	str	r2, [sp, #60]	; 0x3c
  GPIO_InitStruct.Pull = LL_GPIO_PULL_UP;
 800115c:	6126      	str	r6, [r4, #16]
  GPIO_InitStruct.Mode = LL_GPIO_MODE_INPUT;
 800115e:	6065      	str	r5, [r4, #4]
  LL_GPIO_Init(BTN_START_GPIO_Port, &GPIO_InitStruct);
 8001160:	f001 fca6 	bl	8002ab0 <LL_GPIO_Init>
  hi2c1.Instance = I2C1;
 8001164:	4e13      	ldr	r6, [pc, #76]	; (80011b4 <main+0x124>)
 8001166:	4b14      	ldr	r3, [pc, #80]	; (80011b8 <main+0x128>)
  if (HAL_I2C_Init(&hi2c1) != HAL_OK)
 8001168:	0030      	movs	r0, r6
  hi2c1.Instance = I2C1;
 800116a:	6033      	str	r3, [r6, #0]
  hi2c1.Init.Timing = 0x00300F38;
 800116c:	4b13      	ldr	r3, [pc, #76]	; (80011bc <main+0x12c>)
  hi2c1.Init.OwnAddress1 = 0;
 800116e:	60b5      	str	r5, [r6, #8]
  hi2c1.Init.Timing = 0x00300F38;
 8001170:	6073      	str	r3, [r6, #4]
  hi2c1.Init.AddressingMode = I2C_ADDRESSINGMODE_7BIT;
 8001172:	2301      	movs	r3, #1
  hi2c1.Init.DualAddressMode = I2C_DUALADDRESS_DISABLE;
 8001174:	6135      	str	r5, [r6, #16]
  hi2c1.Init.AddressingMode = I2C_ADDRESSINGMODE_7BIT;
 8001176:	60f3      	str	r3, [r6, #12]
  hi2c1.Init.OwnAddress2 = 0;
 8001178:	6175      	str	r5, [r6, #20]
  hi2c1.Init.OwnAddress2Masks = I2C_OA2_NOMASK;
 800117a:	61b5      	str	r5, [r6, #24]
  hi2c1.Init.GeneralCallMode = I2C_GENERALCALL_DISABLE;
 800117c:	61f5      	str	r5, [r6, #28]
  hi2c1.Init.NoStretchMode = I2C_NOSTRETCH_DISABLE;
 800117e:	6235      	str	r5, [r6, #32]
  if (HAL_I2C_Init(&hi2c1) != HAL_OK)
 8001180:	f000 fe68 	bl	8001e54 <HAL_I2C_Init>
 8001184:	0001      	movs	r1, r0
 8001186:	42a8      	cmp	r0, r5
 8001188:	d001      	beq.n	800118e <main+0xfe>
 800118a:	b672      	cpsid	i
  while (1)
 800118c:	e7fe      	b.n	800118c <main+0xfc>
  if (HAL_I2CEx_ConfigAnalogFilter(&hi2c1, I2C_ANALOGFILTER_ENABLE) != HAL_OK)
 800118e:	0030      	movs	r0, r6
 8001190:	f000 ffec 	bl	800216c <HAL_I2CEx_ConfigAnalogFilter>
 8001194:	1e01      	subs	r1, r0, #0
 8001196:	d001      	beq.n	800119c <main+0x10c>
 8001198:	b672      	cpsid	i
  while (1)
 800119a:	e7fe      	b.n	800119a <main+0x10a>
  if (HAL_I2CEx_ConfigDigitalFilter(&hi2c1, 0) != HAL_OK)
 800119c:	0030      	movs	r0, r6
 800119e:	f001 f80b 	bl	80021b8 <HAL_I2CEx_ConfigDigitalFilter>
 80011a2:	1e05      	subs	r5, r0, #0
 80011a4:	d00c      	beq.n	80011c0 <main+0x130>
 80011a6:	b672      	cpsid	i
  while (1)
 80011a8:	e7fe      	b.n	80011a8 <main+0x118>
 80011aa:	46c0      	nop			; (mov r8, r8)
 80011ac:	50000800 	.word	0x50000800
 80011b0:	50000400 	.word	0x50000400
 80011b4:	200000f4 	.word	0x200000f4
 80011b8:	40005400 	.word	0x40005400
 80011bc:	00300f38 	.word	0x00300f38
  LL_TIM_InitTypeDef TIM_InitStruct = {0};
 80011c0:	233e      	movs	r3, #62	; 0x3e
  SET_BIT(RCC->APB2ENR, Periphs);
 80011c2:	2104      	movs	r1, #4
 80011c4:	4adb      	ldr	r2, [pc, #876]	; (8001534 <main+0x4a4>)
 80011c6:	446b      	add	r3, sp
 80011c8:	8018      	strh	r0, [r3, #0]
 80011ca:	6b53      	ldr	r3, [r2, #52]	; 0x34
 */
__STATIC_INLINE void __NVIC_SetPriority(IRQn_Type IRQn, uint32_t priority)
{
  if ((int32_t)(IRQn) >= 0)
  {
    NVIC->IP[_IP_IDX(IRQn)]  = ((uint32_t)(NVIC->IP[_IP_IDX(IRQn)]  & ~(0xFFUL << _BIT_SHIFT(IRQn))) |
 80011cc:	20ff      	movs	r0, #255	; 0xff
 80011ce:	430b      	orrs	r3, r1
 80011d0:	6353      	str	r3, [r2, #52]	; 0x34
  tmpreg = READ_BIT(RCC->APB2ENR, Periphs);
 80011d2:	6b53      	ldr	r3, [r2, #52]	; 0x34
 80011d4:	22c5      	movs	r2, #197	; 0xc5
 80011d6:	400b      	ands	r3, r1
 80011d8:	49d7      	ldr	r1, [pc, #860]	; (8001538 <main+0x4a8>)
 80011da:	9301      	str	r3, [sp, #4]
 80011dc:	0092      	lsls	r2, r2, #2
  (void)tmpreg;
 80011de:	9b01      	ldr	r3, [sp, #4]
 80011e0:	588b      	ldr	r3, [r1, r2]
  SET_BIT(TIMx->CR1, TIM_CR1_ARPE);
 80011e2:	2680      	movs	r6, #128	; 0x80
 80011e4:	4383      	bics	r3, r0
 80011e6:	508b      	str	r3, [r1, r2]
    NVIC->ISER[0U] = (uint32_t)(1UL << (((uint32_t)IRQn) & 0x1FUL));
 80011e8:	2380      	movs	r3, #128	; 0x80
 80011ea:	035b      	lsls	r3, r3, #13
 80011ec:	600b      	str	r3, [r1, #0]
  TIM_InitStruct.Prescaler = 31999;
 80011ee:	4bd3      	ldr	r3, [pc, #844]	; (800153c <main+0x4ac>)
  LL_TIM_Init(TIM21, &TIM_InitStruct);
 80011f0:	0021      	movs	r1, r4
  TIM_InitStruct.Prescaler = 31999;
 80011f2:	8023      	strh	r3, [r4, #0]
  TIM_InitStruct.Autoreload = 499;
 80011f4:	23f4      	movs	r3, #244	; 0xf4
  LL_TIM_Init(TIM21, &TIM_InitStruct);
 80011f6:	48d2      	ldr	r0, [pc, #840]	; (8001540 <main+0x4b0>)
  TIM_InitStruct.Autoreload = 499;
 80011f8:	33ff      	adds	r3, #255	; 0xff
 80011fa:	60a3      	str	r3, [r4, #8]
  TIM_InitStruct.CounterMode = LL_TIM_COUNTERMODE_UP;
 80011fc:	6065      	str	r5, [r4, #4]
  TIM_InitStruct.ClockDivision = LL_TIM_CLOCKDIVISION_DIV1;
 80011fe:	60e5      	str	r5, [r4, #12]
  LL_TIM_Init(TIM21, &TIM_InitStruct);
 8001200:	f001 fd66 	bl	8002cd0 <LL_TIM_Init>
 8001204:	48ce      	ldr	r0, [pc, #824]	; (8001540 <main+0x4b0>)
  MODIFY_REG(TIMx->SMCR, TIM_SMCR_SMS | TIM_SMCR_ECE, ClockSource);
 8001206:	4acf      	ldr	r2, [pc, #828]	; (8001544 <main+0x4b4>)
  SET_BIT(TIMx->CR1, TIM_CR1_ARPE);
 8001208:	6803      	ldr	r3, [r0, #0]
  LL_USART_InitTypeDef USART_InitStruct = {0};
 800120a:	0029      	movs	r1, r5
 800120c:	4333      	orrs	r3, r6
 800120e:	6003      	str	r3, [r0, #0]
  MODIFY_REG(TIMx->SMCR, TIM_SMCR_SMS | TIM_SMCR_ECE, ClockSource);
 8001210:	6883      	ldr	r3, [r0, #8]
 8001212:	4013      	ands	r3, r2
  MODIFY_REG(TIMx->CR2, TIM_CR2_MMS, TimerSynchronization);
 8001214:	2270      	movs	r2, #112	; 0x70
  MODIFY_REG(TIMx->SMCR, TIM_SMCR_SMS | TIM_SMCR_ECE, ClockSource);
 8001216:	6083      	str	r3, [r0, #8]
  MODIFY_REG(TIMx->CR2, TIM_CR2_MMS, TimerSynchronization);
 8001218:	6843      	ldr	r3, [r0, #4]
 800121a:	4393      	bics	r3, r2
 800121c:	6043      	str	r3, [r0, #4]
  CLEAR_BIT(TIMx->SMCR, TIM_SMCR_MSM);
 800121e:	6883      	ldr	r3, [r0, #8]
 8001220:	3a54      	subs	r2, #84	; 0x54
 8001222:	43b3      	bics	r3, r6
 8001224:	6083      	str	r3, [r0, #8]
  LL_GPIO_InitTypeDef GPIO_InitStruct = {0};
 8001226:	ae09      	add	r6, sp, #36	; 0x24
  LL_USART_InitTypeDef USART_InitStruct = {0};
 8001228:	0020      	movs	r0, r4
 800122a:	f001 fe07 	bl	8002e3c <memset>
  LL_GPIO_InitTypeDef GPIO_InitStruct = {0};
 800122e:	2218      	movs	r2, #24
 8001230:	0029      	movs	r1, r5
 8001232:	0030      	movs	r0, r6
 8001234:	f001 fe02 	bl	8002e3c <memset>
  SET_BIT(RCC->APB1ENR, Periphs);
 8001238:	2180      	movs	r1, #128	; 0x80
 800123a:	4bbe      	ldr	r3, [pc, #760]	; (8001534 <main+0x4a4>)
 800123c:	0289      	lsls	r1, r1, #10
 800123e:	6b9a      	ldr	r2, [r3, #56]	; 0x38
  LL_IOP_GRP1_EnableClock(LL_IOP_GRP1_PERIPH_GPIOA);
 8001240:	2001      	movs	r0, #1
 8001242:	430a      	orrs	r2, r1
 8001244:	639a      	str	r2, [r3, #56]	; 0x38
  tmpreg = READ_BIT(RCC->APB1ENR, Periphs);
 8001246:	6b9b      	ldr	r3, [r3, #56]	; 0x38
 8001248:	400b      	ands	r3, r1
 800124a:	9302      	str	r3, [sp, #8]
  (void)tmpreg;
 800124c:	9b02      	ldr	r3, [sp, #8]
 800124e:	f7ff fb09 	bl	8000864 <LL_IOP_GRP1_EnableClock>
  GPIO_InitStruct.Mode = LL_GPIO_MODE_ALTERNATE;
 8001252:	2002      	movs	r0, #2
 8001254:	6070      	str	r0, [r6, #4]
  LL_GPIO_Init(GPIOA, &GPIO_InitStruct);
 8001256:	20a0      	movs	r0, #160	; 0xa0
  GPIO_InitStruct.Pin = LL_GPIO_PIN_2;
 8001258:	2304      	movs	r3, #4
  GPIO_InitStruct.Speed = LL_GPIO_SPEED_FREQ_VERY_HIGH;
 800125a:	2203      	movs	r2, #3
  LL_GPIO_Init(GPIOA, &GPIO_InitStruct);
 800125c:	0031      	movs	r1, r6
 800125e:	05c0      	lsls	r0, r0, #23
  GPIO_InitStruct.Speed = LL_GPIO_SPEED_FREQ_VERY_HIGH;
 8001260:	60b2      	str	r2, [r6, #8]
  GPIO_InitStruct.Alternate = LL_GPIO_AF_4;
 8001262:	6173      	str	r3, [r6, #20]
  GPIO_InitStruct.Pin = LL_GPIO_PIN_2;
 8001264:	9309      	str	r3, [sp, #36]	; 0x24
  GPIO_InitStruct.OutputType = LL_GPIO_OUTPUT_PUSHPULL;
 8001266:	60f5      	str	r5, [r6, #12]
  GPIO_InitStruct.Pull = LL_GPIO_PULL_NO;
 8001268:	6135      	str	r5, [r6, #16]
  LL_GPIO_Init(GPIOA, &GPIO_InitStruct);
 800126a:	f001 fc21 	bl	8002ab0 <LL_GPIO_Init>
  GPIO_InitStruct.Mode = LL_GPIO_MODE_ALTERNATE;
 800126e:	2002      	movs	r0, #2
  GPIO_InitStruct.Pin = LL_GPIO_PIN_3;
 8001270:	2308      	movs	r3, #8
  GPIO_InitStruct.Mode = LL_GPIO_MODE_ALTERNATE;
 8001272:	6070      	str	r0, [r6, #4]
  LL_GPIO_Init(GPIOA, &GPIO_InitStruct);
 8001274:	20a0      	movs	r0, #160	; 0xa0
  GPIO_InitStruct.Speed = LL_GPIO_SPEED_FREQ_VERY_HIGH;
 8001276:	2203      	movs	r2, #3
  LL_GPIO_Init(GPIOA, &GPIO_InitStruct);
 8001278:	0031      	movs	r1, r6
  GPIO_InitStruct.Pin = LL_GPIO_PIN_3;
 800127a:	9309      	str	r3, [sp, #36]	; 0x24
  LL_GPIO_Init(GPIOA, &GPIO_InitStruct);
 800127c:	05c0      	lsls	r0, r0, #23
  GPIO_InitStruct.Alternate = LL_GPIO_AF_4;
 800127e:	3b04      	subs	r3, #4
  GPIO_InitStruct.Speed = LL_GPIO_SPEED_FREQ_VERY_HIGH;
 8001280:	60b2      	str	r2, [r6, #8]
  GPIO_InitStruct.Alternate = LL_GPIO_AF_4;
 8001282:	6173      	str	r3, [r6, #20]
  GPIO_InitStruct.OutputType = LL_GPIO_OUTPUT_PUSHPULL;
 8001284:	60f5      	str	r5, [r6, #12]
  GPIO_InitStruct.Pull = LL_GPIO_PULL_NO;
 8001286:	6135      	str	r5, [r6, #16]
  LL_GPIO_Init(GPIOA, &GPIO_InitStruct);
 8001288:	f001 fc12 	bl	8002ab0 <LL_GPIO_Init>
    NVIC->IP[_IP_IDX(IRQn)]  = ((uint32_t)(NVIC->IP[_IP_IDX(IRQn)]  & ~(0xFFUL << _BIT_SHIFT(IRQn))) |
 800128c:	22c7      	movs	r2, #199	; 0xc7
 800128e:	20ff      	movs	r0, #255	; 0xff
 8001290:	49a9      	ldr	r1, [pc, #676]	; (8001538 <main+0x4a8>)
 8001292:	0092      	lsls	r2, r2, #2
 8001294:	588b      	ldr	r3, [r1, r2]
 8001296:	4383      	bics	r3, r0
 8001298:	508b      	str	r3, [r1, r2]
    NVIC->ISER[0U] = (uint32_t)(1UL << (((uint32_t)IRQn) & 0x1FUL));
 800129a:	2080      	movs	r0, #128	; 0x80
  USART_InitStruct.BaudRate = 9600;
 800129c:	2396      	movs	r3, #150	; 0x96
 800129e:	0540      	lsls	r0, r0, #21
 80012a0:	019b      	lsls	r3, r3, #6
 80012a2:	6008      	str	r0, [r1, #0]
 80012a4:	6023      	str	r3, [r4, #0]
  USART_InitStruct.TransferDirection = LL_USART_DIRECTION_TX_RX;
 80012a6:	230c      	movs	r3, #12
  LL_USART_Init(USART2, &USART_InitStruct);
 80012a8:	0021      	movs	r1, r4
 80012aa:	48a7      	ldr	r0, [pc, #668]	; (8001548 <main+0x4b8>)
  USART_InitStruct.TransferDirection = LL_USART_DIRECTION_TX_RX;
 80012ac:	6123      	str	r3, [r4, #16]
  USART_InitStruct.OverSampling = LL_USART_OVERSAMPLING_8;
 80012ae:	61a7      	str	r7, [r4, #24]
  USART_InitStruct.DataWidth = LL_USART_DATAWIDTH_8B;
 80012b0:	6065      	str	r5, [r4, #4]
  USART_InitStruct.StopBits = LL_USART_STOPBITS_1;
 80012b2:	60a5      	str	r5, [r4, #8]
  USART_InitStruct.Parity = LL_USART_PARITY_NONE;
 80012b4:	60e5      	str	r5, [r4, #12]
  USART_InitStruct.HardwareFlowControl = LL_USART_HWCONTROL_NONE;
 80012b6:	6165      	str	r5, [r4, #20]
  LL_USART_Init(USART2, &USART_InitStruct);
 80012b8:	f001 fd30 	bl	8002d1c <LL_USART_Init>
{
  /* In Asynchronous mode, the following bits must be kept cleared:
  - LINEN, CLKEN bits in the USART_CR2 register,
  - SCEN, IREN and HDSEL bits in the USART_CR3 register.
  */
  CLEAR_BIT(USARTx->CR2, (USART_CR2_LINEN | USART_CR2_CLKEN));
 80012bc:	48a2      	ldr	r0, [pc, #648]	; (8001548 <main+0x4b8>)
 80012be:	4aa3      	ldr	r2, [pc, #652]	; (800154c <main+0x4bc>)
 80012c0:	6843      	ldr	r3, [r0, #4]
  SET_BIT(USARTx->CR1, USART_CR1_UE);
 80012c2:	2101      	movs	r1, #1
  CLEAR_BIT(USARTx->CR2, (USART_CR2_LINEN | USART_CR2_CLKEN));
 80012c4:	4013      	ands	r3, r2
  CLEAR_BIT(USARTx->CR3, (USART_CR3_SCEN | USART_CR3_IREN | USART_CR3_HDSEL));
 80012c6:	222a      	movs	r2, #42	; 0x2a
  CLEAR_BIT(USARTx->CR2, (USART_CR2_LINEN | USART_CR2_CLKEN));
 80012c8:	6043      	str	r3, [r0, #4]
  CLEAR_BIT(USARTx->CR3, (USART_CR3_SCEN | USART_CR3_IREN | USART_CR3_HDSEL));
 80012ca:	6883      	ldr	r3, [r0, #8]
 80012cc:	4393      	bics	r3, r2
 80012ce:	6083      	str	r3, [r0, #8]
  SET_BIT(USARTx->CR1, USART_CR1_UE);
 80012d0:	6803      	ldr	r3, [r0, #0]
  LL_TIM_InitTypeDef TIM_InitStruct = {0};
 80012d2:	3a1a      	subs	r2, #26
 80012d4:	430b      	orrs	r3, r1
 80012d6:	6003      	str	r3, [r0, #0]
 80012d8:	0029      	movs	r1, r5
 80012da:	0030      	movs	r0, r6
 80012dc:	f001 fdae 	bl	8002e3c <memset>
  LL_GPIO_InitTypeDef GPIO_InitStruct = {0};
 80012e0:	2218      	movs	r2, #24
 80012e2:	0029      	movs	r1, r5
 80012e4:	0020      	movs	r0, r4
 80012e6:	f001 fda9 	bl	8002e3c <memset>
  SET_BIT(RCC->APB1ENR, Periphs);
 80012ea:	2101      	movs	r1, #1
 80012ec:	4a91      	ldr	r2, [pc, #580]	; (8001534 <main+0x4a4>)
  LL_IOP_GRP1_EnableClock(LL_IOP_GRP1_PERIPH_GPIOA);
 80012ee:	0008      	movs	r0, r1
 80012f0:	6b93      	ldr	r3, [r2, #56]	; 0x38
 80012f2:	430b      	orrs	r3, r1
 80012f4:	6393      	str	r3, [r2, #56]	; 0x38
  tmpreg = READ_BIT(RCC->APB1ENR, Periphs);
 80012f6:	6b93      	ldr	r3, [r2, #56]	; 0x38
 80012f8:	400b      	ands	r3, r1
 80012fa:	9303      	str	r3, [sp, #12]
  (void)tmpreg;
 80012fc:	9b03      	ldr	r3, [sp, #12]
 80012fe:	f7ff fab1 	bl	8000864 <LL_IOP_GRP1_EnableClock>
  GPIO_InitStruct.Pin = LL_GPIO_PIN_4;
 8001302:	2310      	movs	r3, #16
  LL_GPIO_Init(GPIOA, &GPIO_InitStruct);
 8001304:	20a0      	movs	r0, #160	; 0xa0
  GPIO_InitStruct.Pin = LL_GPIO_PIN_4;
 8001306:	6023      	str	r3, [r4, #0]
  GPIO_InitStruct.Mode = LL_GPIO_MODE_ALTERNATE;
 8001308:	3b0e      	subs	r3, #14
  LL_GPIO_Init(GPIOA, &GPIO_InitStruct);
 800130a:	0021      	movs	r1, r4
  GPIO_InitStruct.Mode = LL_GPIO_MODE_ALTERNATE;
 800130c:	6063      	str	r3, [r4, #4]
  LL_GPIO_Init(GPIOA, &GPIO_InitStruct);
 800130e:	05c0      	lsls	r0, r0, #23
  GPIO_InitStruct.Alternate = LL_GPIO_AF_5;
 8001310:	3303      	adds	r3, #3
 8001312:	6163      	str	r3, [r4, #20]
  GPIO_InitStruct.Speed = LL_GPIO_SPEED_FREQ_LOW;
 8001314:	60a5      	str	r5, [r4, #8]
  GPIO_InitStruct.OutputType = LL_GPIO_OUTPUT_PUSHPULL;
 8001316:	60e5      	str	r5, [r4, #12]
  GPIO_InitStruct.Pull = LL_GPIO_PULL_NO;
 8001318:	6125      	str	r5, [r4, #16]
  LL_GPIO_Init(GPIOA, &GPIO_InitStruct);
 800131a:	f001 fbc9 	bl	8002ab0 <LL_GPIO_Init>
    NVIC->IP[_IP_IDX(IRQn)]  = ((uint32_t)(NVIC->IP[_IP_IDX(IRQn)]  & ~(0xFFUL << _BIT_SHIFT(IRQn))) |
 800131e:	22c3      	movs	r2, #195	; 0xc3
 8001320:	4985      	ldr	r1, [pc, #532]	; (8001538 <main+0x4a8>)
 8001322:	0092      	lsls	r2, r2, #2
 8001324:	588b      	ldr	r3, [r1, r2]
 8001326:	021b      	lsls	r3, r3, #8
 8001328:	0a1b      	lsrs	r3, r3, #8
 800132a:	508b      	str	r3, [r1, r2]
    NVIC->ISER[0U] = (uint32_t)(1UL << (((uint32_t)IRQn) & 0x1FUL));
 800132c:	600f      	str	r7, [r1, #0]
  TIM_InitStruct.Autoreload = 7;
 800132e:	2707      	movs	r7, #7
 8001330:	60b7      	str	r7, [r6, #8]
  LL_TIM_Init(TIM2, &TIM_InitStruct);
 8001332:	2780      	movs	r7, #128	; 0x80
  TIM_InitStruct.ClockDivision = LL_TIM_CLOCKDIVISION_DIV2;
 8001334:	2380      	movs	r3, #128	; 0x80
  LL_TIM_Init(TIM2, &TIM_InitStruct);
 8001336:	05ff      	lsls	r7, r7, #23
 8001338:	0031      	movs	r1, r6
  TIM_InitStruct.ClockDivision = LL_TIM_CLOCKDIVISION_DIV2;
 800133a:	005b      	lsls	r3, r3, #1
  LL_TIM_Init(TIM2, &TIM_InitStruct);
 800133c:	0038      	movs	r0, r7
  TIM_InitStruct.ClockDivision = LL_TIM_CLOCKDIVISION_DIV2;
 800133e:	60f3      	str	r3, [r6, #12]
  TIM_InitStruct.Prescaler = 0;
 8001340:	8035      	strh	r5, [r6, #0]
  TIM_InitStruct.CounterMode = LL_TIM_COUNTERMODE_UP;
 8001342:	6075      	str	r5, [r6, #4]
  LL_TIM_Init(TIM2, &TIM_InitStruct);
 8001344:	f001 fcc4 	bl	8002cd0 <LL_TIM_Init>
  SET_BIT(TIMx->CR1, TIM_CR1_ARPE);
 8001348:	2080      	movs	r0, #128	; 0x80
 800134a:	683b      	ldr	r3, [r7, #0]
  MODIFY_REG(TIMx->SMCR, TIM_SMCR_ETP | TIM_SMCR_ETPS | TIM_SMCR_ETF, ETRPolarity | ETRPrescaler | ETRFilter);
 800134c:	4a80      	ldr	r2, [pc, #512]	; (8001550 <main+0x4c0>)
  SET_BIT(TIMx->CR1, TIM_CR1_ARPE);
 800134e:	4303      	orrs	r3, r0
 8001350:	603b      	str	r3, [r7, #0]
  MODIFY_REG(TIMx->SMCR, TIM_SMCR_ETP | TIM_SMCR_ETPS | TIM_SMCR_ETF, ETRPolarity | ETRPrescaler | ETRFilter);
 8001352:	68bb      	ldr	r3, [r7, #8]
  MODIFY_REG(TIMx->SMCR, TIM_SMCR_SMS | TIM_SMCR_ECE, ClockSource);
 8001354:	497b      	ldr	r1, [pc, #492]	; (8001544 <main+0x4b4>)
  MODIFY_REG(TIMx->SMCR, TIM_SMCR_ETP | TIM_SMCR_ETPS | TIM_SMCR_ETF, ETRPolarity | ETRPrescaler | ETRFilter);
 8001356:	401a      	ands	r2, r3
 8001358:	238e      	movs	r3, #142	; 0x8e
 800135a:	021b      	lsls	r3, r3, #8
 800135c:	4313      	orrs	r3, r2
 800135e:	60bb      	str	r3, [r7, #8]
  MODIFY_REG(TIMx->SMCR, TIM_SMCR_SMS | TIM_SMCR_ECE, ClockSource);
 8001360:	68bb      	ldr	r3, [r7, #8]
  LL_ADC_REG_InitTypeDef ADC_REG_InitStruct = {0};
 8001362:	2214      	movs	r2, #20
 8001364:	400b      	ands	r3, r1
 8001366:	2180      	movs	r1, #128	; 0x80
 8001368:	01c9      	lsls	r1, r1, #7
 800136a:	430b      	orrs	r3, r1
  MODIFY_REG(TIMx->CR2, TIM_CR2_MMS, TimerSynchronization);
 800136c:	2170      	movs	r1, #112	; 0x70
  MODIFY_REG(TIMx->SMCR, TIM_SMCR_SMS | TIM_SMCR_ECE, ClockSource);
 800136e:	60bb      	str	r3, [r7, #8]
  MODIFY_REG(TIMx->CR2, TIM_CR2_MMS, TimerSynchronization);
 8001370:	687b      	ldr	r3, [r7, #4]
 8001372:	438b      	bics	r3, r1
 8001374:	607b      	str	r3, [r7, #4]
  CLEAR_BIT(TIMx->SMCR, TIM_SMCR_MSM);
 8001376:	68bb      	ldr	r3, [r7, #8]
 8001378:	0029      	movs	r1, r5
 800137a:	4383      	bics	r3, r0
 800137c:	60bb      	str	r3, [r7, #8]
 800137e:	0030      	movs	r0, r6
 8001380:	f001 fd5c 	bl	8002e3c <memset>
  LL_ADC_InitTypeDef ADC_InitStruct = {0};
 8001384:	2210      	movs	r2, #16
 8001386:	0029      	movs	r1, r5
 8001388:	a805      	add	r0, sp, #20
 800138a:	f001 fd57 	bl	8002e3c <memset>
  LL_GPIO_InitTypeDef GPIO_InitStruct = {0};
 800138e:	2218      	movs	r2, #24
 8001390:	0029      	movs	r1, r5
 8001392:	0020      	movs	r0, r4
 8001394:	f001 fd52 	bl	8002e3c <memset>
  SET_BIT(RCC->APB2ENR, Periphs);
 8001398:	2180      	movs	r1, #128	; 0x80
 800139a:	4b66      	ldr	r3, [pc, #408]	; (8001534 <main+0x4a4>)
 800139c:	0089      	lsls	r1, r1, #2
 800139e:	6b5a      	ldr	r2, [r3, #52]	; 0x34
  LL_IOP_GRP1_EnableClock(LL_IOP_GRP1_PERIPH_GPIOA);
 80013a0:	2001      	movs	r0, #1
 80013a2:	430a      	orrs	r2, r1
 80013a4:	635a      	str	r2, [r3, #52]	; 0x34
  tmpreg = READ_BIT(RCC->APB2ENR, Periphs);
 80013a6:	6b5b      	ldr	r3, [r3, #52]	; 0x34
 80013a8:	400b      	ands	r3, r1
 80013aa:	9304      	str	r3, [sp, #16]
  (void)tmpreg;
 80013ac:	9b04      	ldr	r3, [sp, #16]
 80013ae:	f7ff fa59 	bl	8000864 <LL_IOP_GRP1_EnableClock>
  GPIO_InitStruct.Pin = LL_GPIO_PIN_0;
 80013b2:	2301      	movs	r3, #1
  LL_GPIO_Init(GPIOA, &GPIO_InitStruct);
 80013b4:	20a0      	movs	r0, #160	; 0xa0
  GPIO_InitStruct.Pin = LL_GPIO_PIN_0;
 80013b6:	6023      	str	r3, [r4, #0]
  GPIO_InitStruct.Mode = LL_GPIO_MODE_ANALOG;
 80013b8:	3302      	adds	r3, #2
  LL_GPIO_Init(GPIOA, &GPIO_InitStruct);
 80013ba:	0021      	movs	r1, r4
  GPIO_InitStruct.Mode = LL_GPIO_MODE_ANALOG;
 80013bc:	6063      	str	r3, [r4, #4]
  GPIO_InitStruct.Pull = LL_GPIO_PULL_NO;
 80013be:	6125      	str	r5, [r4, #16]
    NVIC->IP[_IP_IDX(IRQn)]  = ((uint32_t)(NVIC->IP[_IP_IDX(IRQn)]  & ~(0xFFUL << _BIT_SHIFT(IRQn))) |
 80013c0:	24c3      	movs	r4, #195	; 0xc3
  LL_GPIO_Init(GPIOA, &GPIO_InitStruct);
 80013c2:	05c0      	lsls	r0, r0, #23
 80013c4:	f001 fb74 	bl	8002ab0 <LL_GPIO_Init>
 80013c8:	21ff      	movs	r1, #255	; 0xff
 80013ca:	4a5b      	ldr	r2, [pc, #364]	; (8001538 <main+0x4a8>)
 80013cc:	00a4      	lsls	r4, r4, #2
 80013ce:	5913      	ldr	r3, [r2, r4]
 80013d0:	438b      	bics	r3, r1
 80013d2:	5113      	str	r3, [r2, r4]
    NVIC->ISER[0U] = (uint32_t)(1UL << (((uint32_t)IRQn) & 0x1FUL));
 80013d4:	2380      	movs	r3, #128	; 0x80
  SET_BIT(ADCx->CHSELR, (Channel & ADC_CHANNEL_ID_BITFIELD_MASK));
 80013d6:	4c5f      	ldr	r4, [pc, #380]	; (8001554 <main+0x4c4>)
 80013d8:	015b      	lsls	r3, r3, #5
 80013da:	6013      	str	r3, [r2, #0]
 80013dc:	6aa3      	ldr	r3, [r4, #40]	; 0x28
 80013de:	39fe      	subs	r1, #254	; 0xfe
 80013e0:	430b      	orrs	r3, r1
 80013e2:	62a3      	str	r3, [r4, #40]	; 0x28
  LL_ADC_REG_Init(ADC1, &ADC_REG_InitStruct);
 80013e4:	0031      	movs	r1, r6
 80013e6:	0020      	movs	r0, r4
  ADC_REG_InitStruct.SequencerDiscont = LL_ADC_REG_SEQ_DISCONT_DISABLE;
 80013e8:	6075      	str	r5, [r6, #4]
  ADC_REG_InitStruct.ContinuousMode = LL_ADC_REG_CONV_SINGLE;
 80013ea:	60b5      	str	r5, [r6, #8]
  ADC_REG_InitStruct.DMATransfer = LL_ADC_REG_DMA_TRANSFER_NONE;
 80013ec:	60f5      	str	r5, [r6, #12]
  ADC_REG_InitStruct.Overrun = LL_ADC_REG_OVR_DATA_PRESERVED;
 80013ee:	6135      	str	r5, [r6, #16]
  ADC_REG_InitStruct.TriggerSource = LL_ADC_REG_TRIG_SOFTWARE;
 80013f0:	9509      	str	r5, [sp, #36]	; 0x24
  LL_ADC_REG_Init(ADC1, &ADC_REG_InitStruct);
 80013f2:	f001 fb43 	bl	8002a7c <LL_ADC_REG_Init>
  MODIFY_REG(ADCx->CFGR1, ADC_CFGR1_SCANDIR, ScanDirection);
 80013f6:	2104      	movs	r1, #4
  MODIFY_REG(ADCx->SMPR, ADC_SMPR_SMP, SamplingTime);
 80013f8:	2607      	movs	r6, #7
  MODIFY_REG(ADCx->CFGR1, ADC_CFGR1_SCANDIR, ScanDirection);
 80013fa:	0008      	movs	r0, r1
  MODIFY_REG(ADCx->SMPR, ADC_SMPR_SMP, SamplingTime);
 80013fc:	6963      	ldr	r3, [r4, #20]
  MODIFY_REG(ADCxy_COMMON->CCR, ADC_CCR_LFMEN, CommonFrequencyMode);
 80013fe:	4a56      	ldr	r2, [pc, #344]	; (8001558 <main+0x4c8>)
  MODIFY_REG(ADCx->SMPR, ADC_SMPR_SMP, SamplingTime);
 8001400:	43b3      	bics	r3, r6
 8001402:	3e04      	subs	r6, #4
 8001404:	4333      	orrs	r3, r6
 8001406:	6163      	str	r3, [r4, #20]
  MODIFY_REG(ADCx->CFGR2, ADC_CFGR2_OVSE, OvsScope);
 8001408:	6923      	ldr	r3, [r4, #16]
 800140a:	3e02      	subs	r6, #2
 800140c:	43b3      	bics	r3, r6
 800140e:	6123      	str	r3, [r4, #16]
  MODIFY_REG(ADCx->CFGR1, ADC_CFGR1_SCANDIR, ScanDirection);
 8001410:	68e3      	ldr	r3, [r4, #12]
 8001412:	438b      	bics	r3, r1
 8001414:	60e3      	str	r3, [r4, #12]
  MODIFY_REG(ADCxy_COMMON->CCR, ADC_CCR_LFMEN, CommonFrequencyMode);
 8001416:	6813      	ldr	r3, [r2, #0]
 8001418:	4950      	ldr	r1, [pc, #320]	; (800155c <main+0x4cc>)
 800141a:	400b      	ands	r3, r1
 800141c:	6013      	str	r3, [r2, #0]
  * @param  ADCx ADC instance
  * @retval None
  */
__STATIC_INLINE void LL_ADC_DisableIT_EOC(ADC_TypeDef *ADCx)
{
  CLEAR_BIT(ADCx->IER, LL_ADC_IT_EOC);
 800141e:	6863      	ldr	r3, [r4, #4]
  * @param  ADCx ADC instance
  * @retval None
  */
__STATIC_INLINE void LL_ADC_DisableIT_EOS(ADC_TypeDef *ADCx)
{
  CLEAR_BIT(ADCx->IER, LL_ADC_IT_EOS);
 8001420:	1801      	adds	r1, r0, r0
  CLEAR_BIT(ADCx->IER, LL_ADC_IT_EOC);
 8001422:	4383      	bics	r3, r0
 8001424:	6063      	str	r3, [r4, #4]
  CLEAR_BIT(ADCx->IER, LL_ADC_IT_EOS);
 8001426:	6863      	ldr	r3, [r4, #4]
  LL_ADC_Init(ADC1, &ADC_InitStruct);
 8001428:	0020      	movs	r0, r4
 800142a:	438b      	bics	r3, r1
 800142c:	6063      	str	r3, [r4, #4]
 800142e:	a905      	add	r1, sp, #20
  ADC_InitStruct.Clock = LL_ADC_CLOCK_SYNC_PCLK_DIV2;
 8001430:	9705      	str	r7, [sp, #20]
  ADC_InitStruct.Resolution = LL_ADC_RESOLUTION_12B;
 8001432:	9506      	str	r5, [sp, #24]
  ADC_InitStruct.DataAlignment = LL_ADC_DATA_ALIGN_RIGHT;
 8001434:	9507      	str	r5, [sp, #28]
  ADC_InitStruct.LowPowerMode = LL_ADC_LP_MODE_NONE;
 8001436:	9508      	str	r5, [sp, #32]
  LL_ADC_Init(ADC1, &ADC_InitStruct);
 8001438:	f001 fb04 	bl	8002a44 <LL_ADC_Init>
  MODIFY_REG(ADCx->CR,
 800143c:	2180      	movs	r1, #128	; 0x80
 800143e:	68a3      	ldr	r3, [r4, #8]
 8001440:	4a47      	ldr	r2, [pc, #284]	; (8001560 <main+0x4d0>)
 8001442:	0549      	lsls	r1, r1, #21
 8001444:	4013      	ands	r3, r2
 8001446:	430b      	orrs	r3, r1
  * @param  USARTx USART Instance
  * @retval None
  */
__STATIC_INLINE void LL_USART_EnableIT_RXNE(USART_TypeDef *USARTx)
{
  SET_BIT(USARTx->CR1, USART_CR1_RXNEIE);
 8001448:	2120      	movs	r1, #32
  SET_BIT(TIMx->CR1, TIM_CR1_CEN);
 800144a:	4a3d      	ldr	r2, [pc, #244]	; (8001540 <main+0x4b0>)
 800144c:	60a3      	str	r3, [r4, #8]
 800144e:	6813      	ldr	r3, [r2, #0]
 8001450:	4333      	orrs	r3, r6
 8001452:	6013      	str	r3, [r2, #0]
  SET_BIT(TIMx->DIER, TIM_DIER_UIE);
 8001454:	68d3      	ldr	r3, [r2, #12]
 8001456:	4333      	orrs	r3, r6
 8001458:	60d3      	str	r3, [r2, #12]
  SET_BIT(USARTx->CR1, USART_CR1_UE);
 800145a:	4a3b      	ldr	r2, [pc, #236]	; (8001548 <main+0x4b8>)
 800145c:	6813      	ldr	r3, [r2, #0]
 800145e:	4333      	orrs	r3, r6
 8001460:	6013      	str	r3, [r2, #0]
  SET_BIT(USARTx->CR1, USART_CR1_RXNEIE);
 8001462:	6813      	ldr	r3, [r2, #0]
 8001464:	430b      	orrs	r3, r1
 8001466:	6013      	str	r3, [r2, #0]
  lcdInit();
 8001468:	f7ff f9e1 	bl	800082e <lcdInit>
  lcdBackLightOn();
 800146c:	f7ff f9ee 	bl	800084c <lcdBackLightOn>
  lcdClrScr();
 8001470:	f7ff f94c 	bl	800070c <lcdClrScr>
  isPushCW = 2;
 8001474:	2002      	movs	r0, #2
 8001476:	4b3b      	ldr	r3, [pc, #236]	; (8001564 <main+0x4d4>)
  imp_count = 0;
 8001478:	4f3b      	ldr	r7, [pc, #236]	; (8001568 <main+0x4d8>)
  isPushCW = 2;
 800147a:	6018      	str	r0, [r3, #0]
  dir_azimuth = 0;
 800147c:	4b3b      	ldr	r3, [pc, #236]	; (800156c <main+0x4dc>)
  if (HAL_GPIO_ReadPin(BTN_START_GPIO_Port, BTN_START_Pin) == GPIO_PIN_RESET){
 800147e:	0001      	movs	r1, r0
  dir_azimuth = 0;
 8001480:	601d      	str	r5, [r3, #0]
  dir_gradus = 0;
 8001482:	4b3b      	ldr	r3, [pc, #236]	; (8001570 <main+0x4e0>)
  if (HAL_GPIO_ReadPin(BTN_START_GPIO_Port, BTN_START_Pin) == GPIO_PIN_RESET){
 8001484:	483b      	ldr	r0, [pc, #236]	; (8001574 <main+0x4e4>)
  dir_gradus = 0;
 8001486:	601d      	str	r5, [r3, #0]
  time_on_cw = 0;
 8001488:	4b3b      	ldr	r3, [pc, #236]	; (8001578 <main+0x4e8>)
  imp_count = 0;
 800148a:	603d      	str	r5, [r7, #0]
  time_on_cw = 0;
 800148c:	601d      	str	r5, [r3, #0]
  time_on_ccw = 0;
 800148e:	4b3b      	ldr	r3, [pc, #236]	; (800157c <main+0x4ec>)
 8001490:	601d      	str	r5, [r3, #0]
  flag_stop = 0;
 8001492:	4b3b      	ldr	r3, [pc, #236]	; (8001580 <main+0x4f0>)
 8001494:	701d      	strb	r5, [r3, #0]
  flag_status = 0;
 8001496:	4b3b      	ldr	r3, [pc, #236]	; (8001584 <main+0x4f4>)
 8001498:	701d      	strb	r5, [r3, #0]
  flag_move=0;
 800149a:	4b3b      	ldr	r3, [pc, #236]	; (8001588 <main+0x4f8>)
 800149c:	701d      	strb	r5, [r3, #0]
  if (HAL_GPIO_ReadPin(BTN_START_GPIO_Port, BTN_START_Pin) == GPIO_PIN_RESET){
 800149e:	f000 fbf9 	bl	8001c94 <HAL_GPIO_ReadPin>
 80014a2:	2800      	cmp	r0, #0
 80014a4:	d101      	bne.n	80014aa <main+0x41a>
	  SetDefault();
 80014a6:	f7ff fd19 	bl	8000edc <SetDefault>
  return (*(__IO uint32_t *)address);
 80014aa:	4b38      	ldr	r3, [pc, #224]	; (800158c <main+0x4fc>)
  gradus = ReadFromEEPROM(EEPROM_ADDRESS_START);
 80014ac:	4d38      	ldr	r5, [pc, #224]	; (8001590 <main+0x500>)
  return (*(__IO uint32_t *)address);
 80014ae:	6818      	ldr	r0, [r3, #0]
 80014b0:	4b38      	ldr	r3, [pc, #224]	; (8001594 <main+0x504>)
  gradus = ReadFromEEPROM(EEPROM_ADDRESS_START);
 80014b2:	6028      	str	r0, [r5, #0]
  return (*(__IO uint32_t *)address);
 80014b4:	681b      	ldr	r3, [r3, #0]
  man_azimuth = ReadFromEEPROM(EEPROM_ADDRESS_START + sizeof(man_azimuth));
 80014b6:	4e38      	ldr	r6, [pc, #224]	; (8001598 <main+0x508>)
  imp_count = gradus/3;
 80014b8:	2103      	movs	r1, #3
  man_azimuth = ReadFromEEPROM(EEPROM_ADDRESS_START + sizeof(man_azimuth));
 80014ba:	6033      	str	r3, [r6, #0]
  imp_count = gradus/3;
 80014bc:	f7fe fe38 	bl	8000130 <__udivsi3>
 80014c0:	6038      	str	r0, [r7, #0]
  ShowStartAzimuth ();
 80014c2:	f7ff fb57 	bl	8000b74 <ShowStartAzimuth>
  str_rx[0] = 0;
 80014c6:	2200      	movs	r2, #0
 80014c8:	4b34      	ldr	r3, [pc, #208]	; (800159c <main+0x50c>)
   LL_mDelay(5);
 80014ca:	2005      	movs	r0, #5
  str_rx[0] = 0;
 80014cc:	701a      	strb	r2, [r3, #0]
  str_rx[1] = 0;
 80014ce:	705a      	strb	r2, [r3, #1]
  str_rx[2] = 0;
 80014d0:	709a      	strb	r2, [r3, #2]
  str_rx[3] = 0;
 80014d2:	70da      	strb	r2, [r3, #3]
  str_rx[4] = 0;
 80014d4:	711a      	strb	r2, [r3, #4]
  str_rx[5] = 0;
 80014d6:	715a      	strb	r2, [r3, #5]
  MODIFY_REG(ADCx->CR,
 80014d8:	68a3      	ldr	r3, [r4, #8]
 80014da:	4a31      	ldr	r2, [pc, #196]	; (80015a0 <main+0x510>)
 80014dc:	401a      	ands	r2, r3
 80014de:	2380      	movs	r3, #128	; 0x80
 80014e0:	061b      	lsls	r3, r3, #24
 80014e2:	4313      	orrs	r3, r2
 80014e4:	60a3      	str	r3, [r4, #8]
   LL_mDelay(5);
 80014e6:	f001 fc69 	bl	8002dbc <LL_mDelay>
			flag_eeprom=1;
 80014ea:	2401      	movs	r4, #1
   CheckADC();
 80014ec:	f7ff fd3e 	bl	8000f6c <CheckADC>
		CheckADC();
 80014f0:	f7ff fd3c 	bl	8000f6c <CheckADC>
		if (flag_adc == 0) {
 80014f4:	4b2b      	ldr	r3, [pc, #172]	; (80015a4 <main+0x514>)
 80014f6:	781b      	ldrb	r3, [r3, #0]
 80014f8:	2b00      	cmp	r3, #0
 80014fa:	d117      	bne.n	800152c <main+0x49c>
			flag_eeprom=1;
 80014fc:	4b2a      	ldr	r3, [pc, #168]	; (80015a8 <main+0x518>)
 80014fe:	701c      	strb	r4, [r3, #0]
			if (man_azimuth >= 180)
 8001500:	6833      	ldr	r3, [r6, #0]
 8001502:	2bb3      	cmp	r3, #179	; 0xb3
 8001504:	d901      	bls.n	800150a <main+0x47a>
				dir_azimuth = man_azimuth - 360;
 8001506:	3b69      	subs	r3, #105	; 0x69
 8001508:	3bff      	subs	r3, #255	; 0xff
 800150a:	4a18      	ldr	r2, [pc, #96]	; (800156c <main+0x4dc>)
 800150c:	6013      	str	r3, [r2, #0]
			if (gradus >= 180)
 800150e:	682b      	ldr	r3, [r5, #0]
 8001510:	2bb3      	cmp	r3, #179	; 0xb3
 8001512:	d901      	bls.n	8001518 <main+0x488>
				dir_gradus = gradus - 360;
 8001514:	3b69      	subs	r3, #105	; 0x69
 8001516:	3bff      	subs	r3, #255	; 0xff
 8001518:	4a15      	ldr	r2, [pc, #84]	; (8001570 <main+0x4e0>)
 800151a:	6013      	str	r3, [r2, #0]
			ReadCWButton();
 800151c:	f7ff fb58 	bl	8000bd0 <ReadCWButton>
			ReadCCWButton();
 8001520:	f7ff fba6 	bl	8000c70 <ReadCCWButton>
			ReadStartButton();
 8001524:	f7ff fbf4 	bl	8000d10 <ReadStartButton>
			CheckUSART();
 8001528:	f7ff fafa 	bl	8000b20 <CheckUSART>
		LL_mDelay(10);
 800152c:	200a      	movs	r0, #10
 800152e:	f001 fc45 	bl	8002dbc <LL_mDelay>
		CheckADC();
 8001532:	e7dd      	b.n	80014f0 <main+0x460>
 8001534:	40021000 	.word	0x40021000
 8001538:	e000e100 	.word	0xe000e100
 800153c:	00007cff 	.word	0x00007cff
 8001540:	40010800 	.word	0x40010800
 8001544:	ffffbff8 	.word	0xffffbff8
 8001548:	40004400 	.word	0x40004400
 800154c:	ffffb7ff 	.word	0xffffb7ff
 8001550:	ffff40ff 	.word	0xffff40ff
 8001554:	40012400 	.word	0x40012400
 8001558:	40012708 	.word	0x40012708
 800155c:	fdffffff 	.word	0xfdffffff
 8001560:	6fffffe8 	.word	0x6fffffe8
 8001564:	200000f0 	.word	0x200000f0
 8001568:	200000e0 	.word	0x200000e0
 800156c:	200000cc 	.word	0x200000cc
 8001570:	200000bc 	.word	0x200000bc
 8001574:	50000400 	.word	0x50000400
 8001578:	200000b4 	.word	0x200000b4
 800157c:	200000c8 	.word	0x200000c8
 8001580:	200000b9 	.word	0x200000b9
 8001584:	200000b8 	.word	0x200000b8
 8001588:	200000c4 	.word	0x200000c4
 800158c:	08080000 	.word	0x08080000
 8001590:	200000dc 	.word	0x200000dc
 8001594:	08080004 	.word	0x08080004
 8001598:	200000c0 	.word	0x200000c0
 800159c:	200000d0 	.word	0x200000d0
 80015a0:	7fffffe8 	.word	0x7fffffe8
 80015a4:	20000094 	.word	0x20000094
 80015a8:	20000095 	.word	0x20000095

080015ac <HAL_MspInit>:
{
  /* USER CODE BEGIN MspInit 0 */

  /* USER CODE END MspInit 0 */

  __HAL_RCC_SYSCFG_CLK_ENABLE();
 80015ac:	2201      	movs	r2, #1
 80015ae:	4b05      	ldr	r3, [pc, #20]	; (80015c4 <HAL_MspInit+0x18>)
 80015b0:	6b59      	ldr	r1, [r3, #52]	; 0x34
 80015b2:	430a      	orrs	r2, r1
 80015b4:	635a      	str	r2, [r3, #52]	; 0x34
  __HAL_RCC_PWR_CLK_ENABLE();
 80015b6:	2280      	movs	r2, #128	; 0x80
 80015b8:	6b99      	ldr	r1, [r3, #56]	; 0x38
 80015ba:	0552      	lsls	r2, r2, #21
 80015bc:	430a      	orrs	r2, r1
 80015be:	639a      	str	r2, [r3, #56]	; 0x38
  /* System interrupt init*/

  /* USER CODE BEGIN MspInit 1 */

  /* USER CODE END MspInit 1 */
}
 80015c0:	4770      	bx	lr
 80015c2:	46c0      	nop			; (mov r8, r8)
 80015c4:	40021000 	.word	0x40021000

080015c8 <HAL_I2C_MspInit>:
* This function configures the hardware resources used in this example
* @param hi2c: I2C handle pointer
* @retval None
*/
void HAL_I2C_MspInit(I2C_HandleTypeDef* hi2c)
{
 80015c8:	b510      	push	{r4, lr}
 80015ca:	0004      	movs	r4, r0
 80015cc:	b086      	sub	sp, #24
  GPIO_InitTypeDef GPIO_InitStruct = {0};
 80015ce:	2214      	movs	r2, #20
 80015d0:	2100      	movs	r1, #0
 80015d2:	a801      	add	r0, sp, #4
 80015d4:	f001 fc32 	bl	8002e3c <memset>
  if(hi2c->Instance==I2C1)
 80015d8:	4b10      	ldr	r3, [pc, #64]	; (800161c <HAL_I2C_MspInit+0x54>)
 80015da:	6822      	ldr	r2, [r4, #0]
 80015dc:	429a      	cmp	r2, r3
 80015de:	d11b      	bne.n	8001618 <HAL_I2C_MspInit+0x50>
  {
  /* USER CODE BEGIN I2C1_MspInit 0 */

  /* USER CODE END I2C1_MspInit 0 */

    __HAL_RCC_GPIOA_CLK_ENABLE();
 80015e0:	2301      	movs	r3, #1
 80015e2:	4c0f      	ldr	r4, [pc, #60]	; (8001620 <HAL_I2C_MspInit+0x58>)
    GPIO_InitStruct.Pin = GPIO_PIN_9|GPIO_PIN_10;
    GPIO_InitStruct.Mode = GPIO_MODE_AF_OD;
    GPIO_InitStruct.Pull = GPIO_PULLUP;
    GPIO_InitStruct.Speed = GPIO_SPEED_FREQ_VERY_HIGH;
    GPIO_InitStruct.Alternate = GPIO_AF1_I2C1;
    HAL_GPIO_Init(GPIOA, &GPIO_InitStruct);
 80015e4:	20a0      	movs	r0, #160	; 0xa0
    __HAL_RCC_GPIOA_CLK_ENABLE();
 80015e6:	6ae2      	ldr	r2, [r4, #44]	; 0x2c
    HAL_GPIO_Init(GPIOA, &GPIO_InitStruct);
 80015e8:	a901      	add	r1, sp, #4
    __HAL_RCC_GPIOA_CLK_ENABLE();
 80015ea:	431a      	orrs	r2, r3
 80015ec:	62e2      	str	r2, [r4, #44]	; 0x2c
 80015ee:	6ae2      	ldr	r2, [r4, #44]	; 0x2c
    HAL_GPIO_Init(GPIOA, &GPIO_InitStruct);
 80015f0:	05c0      	lsls	r0, r0, #23
    __HAL_RCC_GPIOA_CLK_ENABLE();
 80015f2:	401a      	ands	r2, r3
 80015f4:	9200      	str	r2, [sp, #0]
 80015f6:	9a00      	ldr	r2, [sp, #0]
    GPIO_InitStruct.Pin = GPIO_PIN_9|GPIO_PIN_10;
 80015f8:	22c0      	movs	r2, #192	; 0xc0
 80015fa:	00d2      	lsls	r2, r2, #3
 80015fc:	9201      	str	r2, [sp, #4]
    GPIO_InitStruct.Mode = GPIO_MODE_AF_OD;
 80015fe:	2212      	movs	r2, #18
 8001600:	9202      	str	r2, [sp, #8]
    GPIO_InitStruct.Speed = GPIO_SPEED_FREQ_VERY_HIGH;
 8001602:	3a0f      	subs	r2, #15
    GPIO_InitStruct.Pull = GPIO_PULLUP;
 8001604:	9303      	str	r3, [sp, #12]
    GPIO_InitStruct.Speed = GPIO_SPEED_FREQ_VERY_HIGH;
 8001606:	9204      	str	r2, [sp, #16]
    GPIO_InitStruct.Alternate = GPIO_AF1_I2C1;
 8001608:	9305      	str	r3, [sp, #20]
    HAL_GPIO_Init(GPIOA, &GPIO_InitStruct);
 800160a:	f000 fa9b 	bl	8001b44 <HAL_GPIO_Init>

    /* Peripheral clock enable */
    __HAL_RCC_I2C1_CLK_ENABLE();
 800160e:	2380      	movs	r3, #128	; 0x80
 8001610:	6ba2      	ldr	r2, [r4, #56]	; 0x38
 8001612:	039b      	lsls	r3, r3, #14
 8001614:	4313      	orrs	r3, r2
 8001616:	63a3      	str	r3, [r4, #56]	; 0x38
  /* USER CODE BEGIN I2C1_MspInit 1 */

  /* USER CODE END I2C1_MspInit 1 */
  }

}
 8001618:	b006      	add	sp, #24
 800161a:	bd10      	pop	{r4, pc}
 800161c:	40005400 	.word	0x40005400
 8001620:	40021000 	.word	0x40021000

08001624 <NMI_Handler>:
{
  /* USER CODE BEGIN NonMaskableInt_IRQn 0 */

  /* USER CODE END NonMaskableInt_IRQn 0 */
  /* USER CODE BEGIN NonMaskableInt_IRQn 1 */
  while (1)
 8001624:	e7fe      	b.n	8001624 <NMI_Handler>

08001626 <HardFault_Handler>:
void HardFault_Handler(void)
{
  /* USER CODE BEGIN HardFault_IRQn 0 */

  /* USER CODE END HardFault_IRQn 0 */
  while (1)
 8001626:	e7fe      	b.n	8001626 <HardFault_Handler>

08001628 <SVC_Handler>:

  /* USER CODE END SVC_IRQn 0 */
  /* USER CODE BEGIN SVC_IRQn 1 */

  /* USER CODE END SVC_IRQn 1 */
}
 8001628:	4770      	bx	lr

0800162a <PendSV_Handler>:
 800162a:	4770      	bx	lr

0800162c <SysTick_Handler>:

/**
  * @brief This function handles System tick timer.
  */
void SysTick_Handler(void)
{
 800162c:	b510      	push	{r4, lr}
  /* USER CODE BEGIN SysTick_IRQn 0 */

  /* USER CODE END SysTick_IRQn 0 */
  HAL_IncTick();
 800162e:	f000 f931 	bl	8001894 <HAL_IncTick>
  /* USER CODE BEGIN SysTick_IRQn 1 */

  /* USER CODE END SysTick_IRQn 1 */
}
 8001632:	bd10      	pop	{r4, pc}

08001634 <ADC1_IRQHandler>:
 8001634:	4770      	bx	lr
	...

08001638 <TIM2_IRQHandler>:
  return ((READ_BIT(TIMx->SR, TIM_SR_UIF) == (TIM_SR_UIF)) ? 1UL : 0UL);
 8001638:	2380      	movs	r3, #128	; 0x80
 800163a:	05db      	lsls	r3, r3, #23
 800163c:	691a      	ldr	r2, [r3, #16]

/**
  * @brief This function handles TIM2 global interrupt.
  */
void TIM2_IRQHandler(void)
{
 800163e:	b510      	push	{r4, lr}
  /* USER CODE BEGIN TIM2_IRQn 0 */
	if (LL_TIM_IsActiveFlag_UPDATE(TIM2)) {
 8001640:	07d2      	lsls	r2, r2, #31
 8001642:	d528      	bpl.n	8001696 <TIM2_IRQHandler+0x5e>
  WRITE_REG(TIMx->SR, ~(TIM_SR_UIF));
 8001644:	2202      	movs	r2, #2
 8001646:	4252      	negs	r2, r2
 8001648:	611a      	str	r2, [r3, #16]
					LL_TIM_ClearFlag_UPDATE(TIM2);
					if (dir_azimuth > dir_gradus){
 800164a:	4814      	ldr	r0, [pc, #80]	; (800169c <TIM2_IRQHandler+0x64>)
 800164c:	4b14      	ldr	r3, [pc, #80]	; (80016a0 <TIM2_IRQHandler+0x68>)
 800164e:	4a15      	ldr	r2, [pc, #84]	; (80016a4 <TIM2_IRQHandler+0x6c>)
 8001650:	681c      	ldr	r4, [r3, #0]
 8001652:	6801      	ldr	r1, [r0, #0]
 8001654:	6813      	ldr	r3, [r2, #0]
 8001656:	428c      	cmp	r4, r1
 8001658:	dd05      	ble.n	8001666 <TIM2_IRQHandler+0x2e>
						if ( imp_count < ((PULSE_PER_360/8)-1)) imp_count++; else imp_count = 0;
 800165a:	2100      	movs	r1, #0
 800165c:	2b76      	cmp	r3, #118	; 0x76
 800165e:	d800      	bhi.n	8001662 <TIM2_IRQHandler+0x2a>
 8001660:	1c59      	adds	r1, r3, #1
 8001662:	6011      	str	r1, [r2, #0]
					}
					if (dir_azimuth < dir_gradus){
 8001664:	e005      	b.n	8001672 <TIM2_IRQHandler+0x3a>
 8001666:	428c      	cmp	r4, r1
 8001668:	da03      	bge.n	8001672 <TIM2_IRQHandler+0x3a>
						if ( imp_count > 0 ) imp_count--; else imp_count = ((PULSE_PER_360)/8)-1;
 800166a:	2b00      	cmp	r3, #0
 800166c:	d014      	beq.n	8001698 <TIM2_IRQHandler+0x60>
 800166e:	3b01      	subs	r3, #1
 8001670:	6013      	str	r3, [r2, #0]
					}
					gradus = imp_count*3;
 8001672:	6813      	ldr	r3, [r2, #0]
 8001674:	2203      	movs	r2, #3
 8001676:	4353      	muls	r3, r2
 8001678:	4a0b      	ldr	r2, [pc, #44]	; (80016a8 <TIM2_IRQHandler+0x70>)
 800167a:	6013      	str	r3, [r2, #0]
					if (gradus >= 180) dir_gradus = gradus - 360; else dir_gradus = gradus;
 800167c:	2bb3      	cmp	r3, #179	; 0xb3
 800167e:	d901      	bls.n	8001684 <TIM2_IRQHandler+0x4c>
 8001680:	3b69      	subs	r3, #105	; 0x69
 8001682:	3bff      	subs	r3, #255	; 0xff
 8001684:	6003      	str	r3, [r0, #0]
					time_on_cw = HAL_GetTick();
 8001686:	f000 f911 	bl	80018ac <HAL_GetTick>
 800168a:	4b08      	ldr	r3, [pc, #32]	; (80016ac <TIM2_IRQHandler+0x74>)
 800168c:	6018      	str	r0, [r3, #0]
					time_on_ccw = HAL_GetTick();
 800168e:	f000 f90d 	bl	80018ac <HAL_GetTick>
 8001692:	4b07      	ldr	r3, [pc, #28]	; (80016b0 <TIM2_IRQHandler+0x78>)
 8001694:	6018      	str	r0, [r3, #0]
				}
  /* USER CODE END TIM2_IRQn 0 */
  /* USER CODE BEGIN TIM2_IRQn 1 */

  /* USER CODE END TIM2_IRQn 1 */
}
 8001696:	bd10      	pop	{r4, pc}
						if ( imp_count > 0 ) imp_count--; else imp_count = ((PULSE_PER_360)/8)-1;
 8001698:	2377      	movs	r3, #119	; 0x77
 800169a:	e7e9      	b.n	8001670 <TIM2_IRQHandler+0x38>
 800169c:	200000bc 	.word	0x200000bc
 80016a0:	200000cc 	.word	0x200000cc
 80016a4:	200000e0 	.word	0x200000e0
 80016a8:	200000dc 	.word	0x200000dc
 80016ac:	200000b4 	.word	0x200000b4
 80016b0:	200000c8 	.word	0x200000c8

080016b4 <TIM21_IRQHandler>:
  return ((READ_BIT(TIMx->SR, TIM_SR_UIF) == (TIM_SR_UIF)) ? 1UL : 0UL);
 80016b4:	4b09      	ldr	r3, [pc, #36]	; (80016dc <TIM21_IRQHandler+0x28>)
 80016b6:	691a      	ldr	r2, [r3, #16]
  * @brief This function handles TIM21 global interrupt.
  */
void TIM21_IRQHandler(void)
{
  /* USER CODE BEGIN TIM21_IRQn 0 */
	if (LL_TIM_IsActiveFlag_UPDATE(TIM21)) {
 80016b8:	07d2      	lsls	r2, r2, #31
 80016ba:	d50d      	bpl.n	80016d8 <TIM21_IRQHandler+0x24>
  WRITE_REG(TIMx->SR, ~(TIM_SR_UIF));
 80016bc:	2202      	movs	r2, #2
  *         @arg @ref LL_GPIO_PIN_ALL
  * @retval None
  */
__STATIC_INLINE void LL_GPIO_TogglePin(GPIO_TypeDef *GPIOx, uint32_t PinMask)
{
  uint32_t odr = READ_REG(GPIOx->ODR);
 80016be:	21a0      	movs	r1, #160	; 0xa0
 80016c0:	4252      	negs	r2, r2
 80016c2:	611a      	str	r2, [r3, #16]
  WRITE_REG(GPIOx->BSRR, ((odr & PinMask) << 16u) | (~odr & PinMask));
 80016c4:	2280      	movs	r2, #128	; 0x80
  uint32_t odr = READ_REG(GPIOx->ODR);
 80016c6:	05c9      	lsls	r1, r1, #23
 80016c8:	6948      	ldr	r0, [r1, #20]
  WRITE_REG(GPIOx->BSRR, ((odr & PinMask) << 16u) | (~odr & PinMask));
 80016ca:	0392      	lsls	r2, r2, #14
 80016cc:	0403      	lsls	r3, r0, #16
 80016ce:	4013      	ands	r3, r2
 80016d0:	2220      	movs	r2, #32
 80016d2:	4382      	bics	r2, r0
 80016d4:	4313      	orrs	r3, r2
 80016d6:	618b      	str	r3, [r1, #24]
			}
  /* USER CODE END TIM21_IRQn 0 */
  /* USER CODE BEGIN TIM21_IRQn 1 */

  /* USER CODE END TIM21_IRQn 1 */
}
 80016d8:	4770      	bx	lr
 80016da:	46c0      	nop			; (mov r8, r8)
 80016dc:	40010800 	.word	0x40010800

080016e0 <USART2_IRQHandler>:
  * @param  USARTx USART Instance
  * @retval None
  */
__STATIC_INLINE void LL_USART_DisableIT_RXNE(USART_TypeDef *USARTx)
{
  CLEAR_BIT(USARTx->CR1, USART_CR1_RXNEIE);
 80016e0:	2220      	movs	r2, #32
 80016e2:	4818      	ldr	r0, [pc, #96]	; (8001744 <USART2_IRQHandler+0x64>)

/**
  * @brief This function handles USART2 global interrupt / USART2 wake-up interrupt through EXTI line 26.
  */
void USART2_IRQHandler(void)
{
 80016e4:	b530      	push	{r4, r5, lr}
 80016e6:	6803      	ldr	r3, [r0, #0]
 80016e8:	4917      	ldr	r1, [pc, #92]	; (8001748 <USART2_IRQHandler+0x68>)
 80016ea:	4393      	bics	r3, r2
 80016ec:	6003      	str	r3, [r0, #0]
  /* USER CODE BEGIN USART2_IRQn 0 */
	LL_USART_DisableIT_RXNE(USART2);
	char letter;
	static uint8_t i = 0;
	letter = USART2->RDR;
 80016ee:	6a42      	ldr	r2, [r0, #36]	; 0x24
 80016f0:	780b      	ldrb	r3, [r1, #0]
 80016f2:	4c16      	ldr	r4, [pc, #88]	; (800174c <USART2_IRQHandler+0x6c>)
 80016f4:	b2d2      	uxtb	r2, r2
	if (letter != '\n') {
		str_rx[i] = letter;
 80016f6:	54e2      	strb	r2, [r4, r3]
	if (letter != '\n') {
 80016f8:	2a0a      	cmp	r2, #10
 80016fa:	d00b      	beq.n	8001714 <USART2_IRQHandler+0x34>
		i++;
 80016fc:	3301      	adds	r3, #1
 80016fe:	b2db      	uxtb	r3, r3
		if (i == 9)
 8001700:	2b09      	cmp	r3, #9
 8001702:	d005      	beq.n	8001710 <USART2_IRQHandler+0x30>
			i = 0;
 8001704:	700b      	strb	r3, [r1, #0]
  SET_BIT(USARTx->CR1, USART_CR1_RXNEIE);
 8001706:	2320      	movs	r3, #32
 8001708:	6802      	ldr	r2, [r0, #0]
 800170a:	4313      	orrs	r3, r2
 800170c:	6003      	str	r3, [r0, #0]
	LL_USART_EnableIT_RXNE(USART2);
  /* USER CODE END USART2_IRQn 0 */
  /* USER CODE BEGIN USART2_IRQn 1 */

  /* USER CODE END USART2_IRQn 1 */
}
 800170e:	bd30      	pop	{r4, r5, pc}
			i = 0;
 8001710:	2300      	movs	r3, #0
 8001712:	e7f7      	b.n	8001704 <USART2_IRQHandler+0x24>
		i = 0;
 8001714:	2500      	movs	r5, #0
		if (str_rx[0] == 'S')
 8001716:	7823      	ldrb	r3, [r4, #0]
		i = 0;
 8001718:	700d      	strb	r5, [r1, #0]
		if (str_rx[0] == 'S')
 800171a:	4c0d      	ldr	r4, [pc, #52]	; (8001750 <USART2_IRQHandler+0x70>)
 800171c:	490d      	ldr	r1, [pc, #52]	; (8001754 <USART2_IRQHandler+0x74>)
 800171e:	4a0e      	ldr	r2, [pc, #56]	; (8001758 <USART2_IRQHandler+0x78>)
 8001720:	2b53      	cmp	r3, #83	; 0x53
 8001722:	d108      	bne.n	8001736 <USART2_IRQHandler+0x56>
			flag_stop = 1;
 8001724:	3501      	adds	r5, #1
 8001726:	7025      	strb	r5, [r4, #0]
			flag_move = 0;
 8001728:	2400      	movs	r4, #0
 800172a:	700c      	strb	r4, [r1, #0]
		if (str_rx[0] == 'C')
 800172c:	2b43      	cmp	r3, #67	; 0x43
 800172e:	d107      	bne.n	8001740 <USART2_IRQHandler+0x60>
			flag_status = 1;
 8001730:	3b42      	subs	r3, #66	; 0x42
			flag_status = 0;
 8001732:	7013      	strb	r3, [r2, #0]
 8001734:	e7e7      	b.n	8001706 <USART2_IRQHandler+0x26>
			flag_stop = 0;
 8001736:	7025      	strb	r5, [r4, #0]
		if (str_rx[0] == 'M')
 8001738:	2b4d      	cmp	r3, #77	; 0x4d
 800173a:	d1f5      	bne.n	8001728 <USART2_IRQHandler+0x48>
			flag_move = 1;
 800173c:	3b4c      	subs	r3, #76	; 0x4c
 800173e:	700b      	strb	r3, [r1, #0]
			flag_status = 0;
 8001740:	2300      	movs	r3, #0
 8001742:	e7f6      	b.n	8001732 <USART2_IRQHandler+0x52>
 8001744:	40004400 	.word	0x40004400
 8001748:	200000a4 	.word	0x200000a4
 800174c:	200000d0 	.word	0x200000d0
 8001750:	200000b9 	.word	0x200000b9
 8001754:	200000c4 	.word	0x200000c4
 8001758:	200000b8 	.word	0x200000b8

0800175c <_sbrk>:
void *_sbrk(ptrdiff_t incr)
{
  extern uint8_t _end; /* Symbol defined in the linker script */
  extern uint8_t _estack; /* Symbol defined in the linker script */
  extern uint32_t _Min_Stack_Size; /* Symbol defined in the linker script */
  const uint32_t stack_limit = (uint32_t)&_estack - (uint32_t)&_Min_Stack_Size;
 800175c:	4a0b      	ldr	r2, [pc, #44]	; (800178c <_sbrk+0x30>)
 800175e:	490c      	ldr	r1, [pc, #48]	; (8001790 <_sbrk+0x34>)
{
 8001760:	0003      	movs	r3, r0
  const uint32_t stack_limit = (uint32_t)&_estack - (uint32_t)&_Min_Stack_Size;
 8001762:	1a89      	subs	r1, r1, r2
  const uint8_t *max_heap = (uint8_t *)stack_limit;
  uint8_t *prev_heap_end;

  /* Initialize heap end at first call */
  if (NULL == __sbrk_heap_end)
 8001764:	4a0b      	ldr	r2, [pc, #44]	; (8001794 <_sbrk+0x38>)
{
 8001766:	b510      	push	{r4, lr}
  if (NULL == __sbrk_heap_end)
 8001768:	6810      	ldr	r0, [r2, #0]
 800176a:	2800      	cmp	r0, #0
 800176c:	d101      	bne.n	8001772 <_sbrk+0x16>
  {
    __sbrk_heap_end = &_end;
 800176e:	480a      	ldr	r0, [pc, #40]	; (8001798 <_sbrk+0x3c>)
 8001770:	6010      	str	r0, [r2, #0]
  }

  /* Protect heap from growing into the reserved MSP stack */
  if (__sbrk_heap_end + incr > max_heap)
 8001772:	6810      	ldr	r0, [r2, #0]
 8001774:	18c3      	adds	r3, r0, r3
 8001776:	428b      	cmp	r3, r1
 8001778:	d906      	bls.n	8001788 <_sbrk+0x2c>
  {
    errno = ENOMEM;
 800177a:	f001 fb35 	bl	8002de8 <__errno>
 800177e:	230c      	movs	r3, #12
 8001780:	6003      	str	r3, [r0, #0]
    return (void *)-1;
 8001782:	2001      	movs	r0, #1
 8001784:	4240      	negs	r0, r0

  prev_heap_end = __sbrk_heap_end;
  __sbrk_heap_end += incr;

  return (void *)prev_heap_end;
}
 8001786:	bd10      	pop	{r4, pc}
  __sbrk_heap_end += incr;
 8001788:	6013      	str	r3, [r2, #0]
  return (void *)prev_heap_end;
 800178a:	e7fc      	b.n	8001786 <_sbrk+0x2a>
 800178c:	00000400 	.word	0x00000400
 8001790:	20000800 	.word	0x20000800
 8001794:	200000a8 	.word	0x200000a8
 8001798:	20000170 	.word	0x20000170

0800179c <SystemInit>:
{
  /* Configure the Vector Table location add offset address ------------------*/
#if defined (USER_VECT_TAB_ADDRESS)
  SCB->VTOR = VECT_TAB_BASE_ADDRESS | VECT_TAB_OFFSET; /* Vector Table Relocation in Internal SRAM */
#endif /* USER_VECT_TAB_ADDRESS */
}
 800179c:	4770      	bx	lr
	...

080017a0 <Reset_Handler>:

    .section  .text.Reset_Handler
  .weak  Reset_Handler
  .type  Reset_Handler, %function
Reset_Handler:  
   ldr   r0, =_estack
 80017a0:	4813      	ldr	r0, [pc, #76]	; (80017f0 <LoopForever+0x2>)
   mov   sp, r0          /* set stack pointer */
 80017a2:	4685      	mov	sp, r0

/*Check if boot space corresponds to system memory*/

    LDR R0,=0x00000004
 80017a4:	4813      	ldr	r0, [pc, #76]	; (80017f4 <LoopForever+0x6>)
    LDR R1, [R0]
 80017a6:	6801      	ldr	r1, [r0, #0]
    LSRS R1, R1, #24
 80017a8:	0e09      	lsrs	r1, r1, #24
    LDR R2,=0x1F
 80017aa:	4a13      	ldr	r2, [pc, #76]	; (80017f8 <LoopForever+0xa>)
    CMP R1, R2
 80017ac:	4291      	cmp	r1, r2
    BNE ApplicationStart
 80017ae:	d105      	bne.n	80017bc <ApplicationStart>

 /*SYSCFG clock enable*/
    LDR R0,=0x40021034
 80017b0:	4812      	ldr	r0, [pc, #72]	; (80017fc <LoopForever+0xe>)
    LDR R1,=0x00000001
 80017b2:	4913      	ldr	r1, [pc, #76]	; (8001800 <LoopForever+0x12>)
    STR R1, [R0]
 80017b4:	6001      	str	r1, [r0, #0]

/*Set CFGR1 register with flash memory remap at address 0*/
    LDR R0,=0x40010000
 80017b6:	4813      	ldr	r0, [pc, #76]	; (8001804 <LoopForever+0x16>)
    LDR R1,=0x00000000
 80017b8:	4913      	ldr	r1, [pc, #76]	; (8001808 <LoopForever+0x1a>)
    STR R1, [R0]
 80017ba:	6001      	str	r1, [r0, #0]

080017bc <ApplicationStart>:

ApplicationStart:
/* Copy the data segment initializers from flash to SRAM */
  ldr r0, =_sdata
 80017bc:	4813      	ldr	r0, [pc, #76]	; (800180c <LoopForever+0x1e>)
  ldr r1, =_edata
 80017be:	4914      	ldr	r1, [pc, #80]	; (8001810 <LoopForever+0x22>)
  ldr r2, =_sidata
 80017c0:	4a14      	ldr	r2, [pc, #80]	; (8001814 <LoopForever+0x26>)
  movs r3, #0
 80017c2:	2300      	movs	r3, #0
  b LoopCopyDataInit
 80017c4:	e002      	b.n	80017cc <LoopCopyDataInit>

080017c6 <CopyDataInit>:

CopyDataInit:
  ldr r4, [r2, r3]
 80017c6:	58d4      	ldr	r4, [r2, r3]
  str r4, [r0, r3]
 80017c8:	50c4      	str	r4, [r0, r3]
  adds r3, r3, #4
 80017ca:	3304      	adds	r3, #4

080017cc <LoopCopyDataInit>:

LoopCopyDataInit:
  adds r4, r0, r3
 80017cc:	18c4      	adds	r4, r0, r3
  cmp r4, r1
 80017ce:	428c      	cmp	r4, r1
  bcc CopyDataInit
 80017d0:	d3f9      	bcc.n	80017c6 <CopyDataInit>
  
/* Zero fill the bss segment. */
  ldr r2, =_sbss
 80017d2:	4a11      	ldr	r2, [pc, #68]	; (8001818 <LoopForever+0x2a>)
  ldr r4, =_ebss
 80017d4:	4c11      	ldr	r4, [pc, #68]	; (800181c <LoopForever+0x2e>)
  movs r3, #0
 80017d6:	2300      	movs	r3, #0
  b LoopFillZerobss
 80017d8:	e001      	b.n	80017de <LoopFillZerobss>

080017da <FillZerobss>:

FillZerobss:
  str  r3, [r2]
 80017da:	6013      	str	r3, [r2, #0]
  adds r2, r2, #4
 80017dc:	3204      	adds	r2, #4

080017de <LoopFillZerobss>:

LoopFillZerobss:
  cmp r2, r4
 80017de:	42a2      	cmp	r2, r4
  bcc FillZerobss
 80017e0:	d3fb      	bcc.n	80017da <FillZerobss>

/* Call the clock system intitialization function.*/
  bl  SystemInit
 80017e2:	f7ff ffdb 	bl	800179c <SystemInit>
/* Call static constructors */
    bl __libc_init_array
 80017e6:	f001 fb05 	bl	8002df4 <__libc_init_array>
/* Call the application's entry point.*/
  bl  main
 80017ea:	f7ff fc51 	bl	8001090 <main>

080017ee <LoopForever>:

LoopForever:
    b LoopForever
 80017ee:	e7fe      	b.n	80017ee <LoopForever>
   ldr   r0, =_estack
 80017f0:	20000800 	.word	0x20000800
    LDR R0,=0x00000004
 80017f4:	00000004 	.word	0x00000004
    LDR R2,=0x1F
 80017f8:	0000001f 	.word	0x0000001f
    LDR R0,=0x40021034
 80017fc:	40021034 	.word	0x40021034
    LDR R1,=0x00000001
 8001800:	00000001 	.word	0x00000001
    LDR R0,=0x40010000
 8001804:	40010000 	.word	0x40010000
    LDR R1,=0x00000000
 8001808:	00000000 	.word	0x00000000
  ldr r0, =_sdata
 800180c:	20000000 	.word	0x20000000
  ldr r1, =_edata
 8001810:	20000074 	.word	0x20000074
  ldr r2, =_sidata
 8001814:	08003758 	.word	0x08003758
  ldr r2, =_sbss
 8001818:	20000074 	.word	0x20000074
  ldr r4, =_ebss
 800181c:	2000016c 	.word	0x2000016c

08001820 <DMA1_Channel1_IRQHandler>:
 * @retval : None
*/
    .section  .text.Default_Handler,"ax",%progbits
Default_Handler:
Infinite_Loop:
  b  Infinite_Loop
 8001820:	e7fe      	b.n	8001820 <DMA1_Channel1_IRQHandler>
	...

08001824 <HAL_InitTick>:
  *       implementation  in user file.
  * @param TickPriority Tick interrupt priority.
  * @retval HAL status
  */
__weak HAL_StatusTypeDef HAL_InitTick(uint32_t TickPriority)
{
 8001824:	b570      	push	{r4, r5, r6, lr}
 8001826:	0005      	movs	r5, r0
  /* Configure the SysTick to have interrupt in 1ms time basis*/
  if (HAL_SYSTICK_Config(SystemCoreClock / (1000U / uwTickFreq)) > 0U)
 8001828:	20fa      	movs	r0, #250	; 0xfa
 800182a:	4b0d      	ldr	r3, [pc, #52]	; (8001860 <HAL_InitTick+0x3c>)
 800182c:	0080      	lsls	r0, r0, #2
 800182e:	7819      	ldrb	r1, [r3, #0]
 8001830:	f7fe fc7e 	bl	8000130 <__udivsi3>
 8001834:	4b0b      	ldr	r3, [pc, #44]	; (8001864 <HAL_InitTick+0x40>)
 8001836:	0001      	movs	r1, r0
 8001838:	6818      	ldr	r0, [r3, #0]
 800183a:	f7fe fc79 	bl	8000130 <__udivsi3>
 800183e:	f000 f877 	bl	8001930 <HAL_SYSTICK_Config>
 8001842:	0004      	movs	r4, r0
  {
    return HAL_ERROR;
 8001844:	2001      	movs	r0, #1
  if (HAL_SYSTICK_Config(SystemCoreClock / (1000U / uwTickFreq)) > 0U)
 8001846:	2c00      	cmp	r4, #0
 8001848:	d109      	bne.n	800185e <HAL_InitTick+0x3a>
  }

  /* Configure the SysTick IRQ priority */
  if (TickPriority < (1UL << __NVIC_PRIO_BITS))
 800184a:	2d03      	cmp	r5, #3
 800184c:	d807      	bhi.n	800185e <HAL_InitTick+0x3a>
  {
    HAL_NVIC_SetPriority(SysTick_IRQn, TickPriority, 0U);
 800184e:	3802      	subs	r0, #2
 8001850:	0022      	movs	r2, r4
 8001852:	0029      	movs	r1, r5
 8001854:	f000 f842 	bl	80018dc <HAL_NVIC_SetPriority>
    uwTickPrio = TickPriority;
 8001858:	0020      	movs	r0, r4
 800185a:	4b03      	ldr	r3, [pc, #12]	; (8001868 <HAL_InitTick+0x44>)
 800185c:	601d      	str	r5, [r3, #0]
    return HAL_ERROR;
  }

  /* Return function status */
  return HAL_OK;
}
 800185e:	bd70      	pop	{r4, r5, r6, pc}
 8001860:	20000008 	.word	0x20000008
 8001864:	20000004 	.word	0x20000004
 8001868:	2000000c 	.word	0x2000000c

0800186c <HAL_Init>:
  __HAL_FLASH_PREREAD_BUFFER_ENABLE();
 800186c:	2340      	movs	r3, #64	; 0x40
 800186e:	4a08      	ldr	r2, [pc, #32]	; (8001890 <HAL_Init+0x24>)
{
 8001870:	b510      	push	{r4, lr}
  __HAL_FLASH_PREREAD_BUFFER_ENABLE();
 8001872:	6811      	ldr	r1, [r2, #0]
  if (HAL_InitTick(TICK_INT_PRIORITY) != HAL_OK)
 8001874:	2000      	movs	r0, #0
  __HAL_FLASH_PREREAD_BUFFER_ENABLE();
 8001876:	430b      	orrs	r3, r1
 8001878:	6013      	str	r3, [r2, #0]
  if (HAL_InitTick(TICK_INT_PRIORITY) != HAL_OK)
 800187a:	f7ff ffd3 	bl	8001824 <HAL_InitTick>
 800187e:	1e04      	subs	r4, r0, #0
 8001880:	d103      	bne.n	800188a <HAL_Init+0x1e>
    HAL_MspInit();
 8001882:	f7ff fe93 	bl	80015ac <HAL_MspInit>
}
 8001886:	0020      	movs	r0, r4
 8001888:	bd10      	pop	{r4, pc}
    status = HAL_ERROR;
 800188a:	2401      	movs	r4, #1
 800188c:	e7fb      	b.n	8001886 <HAL_Init+0x1a>
 800188e:	46c0      	nop			; (mov r8, r8)
 8001890:	40022000 	.word	0x40022000

08001894 <HAL_IncTick>:
  *      implementations in user file.
  * @retval None
  */
__weak void HAL_IncTick(void)
{
  uwTick += uwTickFreq;
 8001894:	4a03      	ldr	r2, [pc, #12]	; (80018a4 <HAL_IncTick+0x10>)
 8001896:	4b04      	ldr	r3, [pc, #16]	; (80018a8 <HAL_IncTick+0x14>)
 8001898:	6811      	ldr	r1, [r2, #0]
 800189a:	781b      	ldrb	r3, [r3, #0]
 800189c:	185b      	adds	r3, r3, r1
 800189e:	6013      	str	r3, [r2, #0]
}
 80018a0:	4770      	bx	lr
 80018a2:	46c0      	nop			; (mov r8, r8)
 80018a4:	20000140 	.word	0x20000140
 80018a8:	20000008 	.word	0x20000008

080018ac <HAL_GetTick>:
  *       implementations in user file.
  * @retval tick value
  */
__weak uint32_t HAL_GetTick(void)
{
  return uwTick;
 80018ac:	4b01      	ldr	r3, [pc, #4]	; (80018b4 <HAL_GetTick+0x8>)
 80018ae:	6818      	ldr	r0, [r3, #0]
}
 80018b0:	4770      	bx	lr
 80018b2:	46c0      	nop			; (mov r8, r8)
 80018b4:	20000140 	.word	0x20000140

080018b8 <HAL_Delay>:
  *       implementations in user file.
  * @param Delay specifies the delay time length, in milliseconds.
  * @retval None
  */
__weak void HAL_Delay(uint32_t Delay)
{
 80018b8:	b570      	push	{r4, r5, r6, lr}
 80018ba:	0004      	movs	r4, r0
  uint32_t tickstart = HAL_GetTick();
 80018bc:	f7ff fff6 	bl	80018ac <HAL_GetTick>
 80018c0:	0005      	movs	r5, r0
  uint32_t wait = Delay;

  /* Add a freq to guarantee minimum wait */
  if (wait < HAL_MAX_DELAY)
 80018c2:	1c63      	adds	r3, r4, #1
 80018c4:	d002      	beq.n	80018cc <HAL_Delay+0x14>
  {
    wait += (uint32_t)(uwTickFreq);
 80018c6:	4b04      	ldr	r3, [pc, #16]	; (80018d8 <HAL_Delay+0x20>)
 80018c8:	781b      	ldrb	r3, [r3, #0]
 80018ca:	18e4      	adds	r4, r4, r3
  }

  while((HAL_GetTick() - tickstart) < wait)
 80018cc:	f7ff ffee 	bl	80018ac <HAL_GetTick>
 80018d0:	1b40      	subs	r0, r0, r5
 80018d2:	42a0      	cmp	r0, r4
 80018d4:	d3fa      	bcc.n	80018cc <HAL_Delay+0x14>
  {
  }
}
 80018d6:	bd70      	pop	{r4, r5, r6, pc}
 80018d8:	20000008 	.word	0x20000008

080018dc <HAL_NVIC_SetPriority>:
  *         with stm32l0xx devices, this parameter is a dummy value and it is ignored, because 
  *         no subpriority supported in Cortex M0+ based products.   
  * @retval None
  */
void HAL_NVIC_SetPriority(IRQn_Type IRQn, uint32_t PreemptPriority, uint32_t SubPriority)
{ 
 80018dc:	b530      	push	{r4, r5, lr}
 80018de:	25ff      	movs	r5, #255	; 0xff
 80018e0:	2403      	movs	r4, #3
 80018e2:	002a      	movs	r2, r5
 80018e4:	4004      	ands	r4, r0
 80018e6:	00e4      	lsls	r4, r4, #3
 80018e8:	40a2      	lsls	r2, r4
 80018ea:	0189      	lsls	r1, r1, #6
 80018ec:	4029      	ands	r1, r5
 80018ee:	43d2      	mvns	r2, r2
 80018f0:	40a1      	lsls	r1, r4
 80018f2:	b2c3      	uxtb	r3, r0
  if ((int32_t)(IRQn) >= 0)
 80018f4:	2800      	cmp	r0, #0
 80018f6:	db0a      	blt.n	800190e <HAL_NVIC_SetPriority+0x32>
    NVIC->IP[_IP_IDX(IRQn)]  = ((uint32_t)(NVIC->IP[_IP_IDX(IRQn)]  & ~(0xFFUL << _BIT_SHIFT(IRQn))) |
 80018f8:	24c0      	movs	r4, #192	; 0xc0
 80018fa:	4b0b      	ldr	r3, [pc, #44]	; (8001928 <HAL_NVIC_SetPriority+0x4c>)
 80018fc:	0880      	lsrs	r0, r0, #2
 80018fe:	0080      	lsls	r0, r0, #2
 8001900:	18c0      	adds	r0, r0, r3
 8001902:	00a4      	lsls	r4, r4, #2
 8001904:	5903      	ldr	r3, [r0, r4]
 8001906:	401a      	ands	r2, r3
 8001908:	4311      	orrs	r1, r2
 800190a:	5101      	str	r1, [r0, r4]
    /* Check the parameters */
  assert_param(IS_NVIC_PREEMPTION_PRIORITY(PreemptPriority));
  NVIC_SetPriority(IRQn,PreemptPriority);
}
 800190c:	bd30      	pop	{r4, r5, pc}
       (((priority << (8U - __NVIC_PRIO_BITS)) & (uint32_t)0xFFUL) << _BIT_SHIFT(IRQn)));
  }
  else
  {
    SCB->SHP[_SHP_IDX(IRQn)] = ((uint32_t)(SCB->SHP[_SHP_IDX(IRQn)] & ~(0xFFUL << _BIT_SHIFT(IRQn))) |
 800190e:	200f      	movs	r0, #15
 8001910:	4003      	ands	r3, r0
 8001912:	3b08      	subs	r3, #8
 8001914:	4805      	ldr	r0, [pc, #20]	; (800192c <HAL_NVIC_SetPriority+0x50>)
 8001916:	089b      	lsrs	r3, r3, #2
 8001918:	009b      	lsls	r3, r3, #2
 800191a:	181b      	adds	r3, r3, r0
 800191c:	69d8      	ldr	r0, [r3, #28]
 800191e:	4002      	ands	r2, r0
 8001920:	4311      	orrs	r1, r2
 8001922:	61d9      	str	r1, [r3, #28]
 8001924:	e7f2      	b.n	800190c <HAL_NVIC_SetPriority+0x30>
 8001926:	46c0      	nop			; (mov r8, r8)
 8001928:	e000e100 	.word	0xe000e100
 800192c:	e000ed00 	.word	0xe000ed00

08001930 <HAL_SYSTICK_Config>:
           function <b>SysTick_Config</b> is not included. In this case, the file <b><i>device</i>.h</b>
           must contain a vendor-specific implementation of this function.
 */
__STATIC_INLINE uint32_t SysTick_Config(uint32_t ticks)
{
  if ((ticks - 1UL) > SysTick_LOAD_RELOAD_Msk)
 8001930:	2280      	movs	r2, #128	; 0x80
 8001932:	1e43      	subs	r3, r0, #1
 8001934:	0452      	lsls	r2, r2, #17
  {
    return (1UL);                                                   /* Reload value impossible */
 8001936:	2001      	movs	r0, #1
  if ((ticks - 1UL) > SysTick_LOAD_RELOAD_Msk)
 8001938:	4293      	cmp	r3, r2
 800193a:	d20d      	bcs.n	8001958 <HAL_SYSTICK_Config+0x28>
    SCB->SHP[_SHP_IDX(IRQn)] = ((uint32_t)(SCB->SHP[_SHP_IDX(IRQn)] & ~(0xFFUL << _BIT_SHIFT(IRQn))) |
 800193c:	21c0      	movs	r1, #192	; 0xc0
  }

  SysTick->LOAD  = (uint32_t)(ticks - 1UL);                         /* set reload register */
 800193e:	4a07      	ldr	r2, [pc, #28]	; (800195c <HAL_SYSTICK_Config+0x2c>)
    SCB->SHP[_SHP_IDX(IRQn)] = ((uint32_t)(SCB->SHP[_SHP_IDX(IRQn)] & ~(0xFFUL << _BIT_SHIFT(IRQn))) |
 8001940:	4807      	ldr	r0, [pc, #28]	; (8001960 <HAL_SYSTICK_Config+0x30>)
  SysTick->LOAD  = (uint32_t)(ticks - 1UL);                         /* set reload register */
 8001942:	6053      	str	r3, [r2, #4]
    SCB->SHP[_SHP_IDX(IRQn)] = ((uint32_t)(SCB->SHP[_SHP_IDX(IRQn)] & ~(0xFFUL << _BIT_SHIFT(IRQn))) |
 8001944:	6a03      	ldr	r3, [r0, #32]
 8001946:	0609      	lsls	r1, r1, #24
 8001948:	021b      	lsls	r3, r3, #8
 800194a:	0a1b      	lsrs	r3, r3, #8
 800194c:	430b      	orrs	r3, r1
 800194e:	6203      	str	r3, [r0, #32]
  NVIC_SetPriority (SysTick_IRQn, (1UL << __NVIC_PRIO_BITS) - 1UL); /* set Priority for Systick Interrupt */
  SysTick->VAL   = 0UL;                                             /* Load the SysTick Counter Value */
 8001950:	2000      	movs	r0, #0
  SysTick->CTRL  = SysTick_CTRL_CLKSOURCE_Msk |
 8001952:	2307      	movs	r3, #7
  SysTick->VAL   = 0UL;                                             /* Load the SysTick Counter Value */
 8001954:	6090      	str	r0, [r2, #8]
  SysTick->CTRL  = SysTick_CTRL_CLKSOURCE_Msk |
 8001956:	6013      	str	r3, [r2, #0]
  *                  - 1  Function failed.
  */
uint32_t HAL_SYSTICK_Config(uint32_t TicksNumb)
{
   return SysTick_Config(TicksNumb);
}
 8001958:	4770      	bx	lr
 800195a:	46c0      	nop			; (mov r8, r8)
 800195c:	e000e010 	.word	0xe000e010
 8001960:	e000ed00 	.word	0xe000ed00

08001964 <FLASH_SetErrorCode>:
  */
static void FLASH_SetErrorCode(void)
{
  uint32_t flags = 0;
  
  if(__HAL_FLASH_GET_FLAG(FLASH_FLAG_WRPERR))
 8001964:	4a28      	ldr	r2, [pc, #160]	; (8001a08 <FLASH_SetErrorCode+0xa4>)
 8001966:	2180      	movs	r1, #128	; 0x80
 8001968:	6990      	ldr	r0, [r2, #24]
 800196a:	0049      	lsls	r1, r1, #1
 800196c:	0003      	movs	r3, r0
{
 800196e:	b530      	push	{r4, r5, lr}
  if(__HAL_FLASH_GET_FLAG(FLASH_FLAG_WRPERR))
 8001970:	400b      	ands	r3, r1
 8001972:	4208      	tst	r0, r1
 8001974:	d005      	beq.n	8001982 <FLASH_SetErrorCode+0x1e>
  {
    pFlash.ErrorCode |= HAL_FLASH_ERROR_WRP;
 8001976:	2302      	movs	r3, #2
 8001978:	4824      	ldr	r0, [pc, #144]	; (8001a0c <FLASH_SetErrorCode+0xa8>)
 800197a:	6944      	ldr	r4, [r0, #20]
 800197c:	4323      	orrs	r3, r4
 800197e:	6143      	str	r3, [r0, #20]
    flags |= FLASH_FLAG_WRPERR;
 8001980:	000b      	movs	r3, r1
  }
  if(__HAL_FLASH_GET_FLAG(FLASH_FLAG_PGAERR))
 8001982:	2080      	movs	r0, #128	; 0x80
 8001984:	6991      	ldr	r1, [r2, #24]
 8001986:	0080      	lsls	r0, r0, #2
 8001988:	4201      	tst	r1, r0
 800198a:	d005      	beq.n	8001998 <FLASH_SetErrorCode+0x34>
  {
    pFlash.ErrorCode |= HAL_FLASH_ERROR_PGA;
 800198c:	2101      	movs	r1, #1
 800198e:	4c1f      	ldr	r4, [pc, #124]	; (8001a0c <FLASH_SetErrorCode+0xa8>)
    flags |= FLASH_FLAG_PGAERR;
 8001990:	4303      	orrs	r3, r0
    pFlash.ErrorCode |= HAL_FLASH_ERROR_PGA;
 8001992:	6965      	ldr	r5, [r4, #20]
 8001994:	4329      	orrs	r1, r5
 8001996:	6161      	str	r1, [r4, #20]
  }
  if(__HAL_FLASH_GET_FLAG(FLASH_FLAG_SIZERR))
 8001998:	2080      	movs	r0, #128	; 0x80
 800199a:	6991      	ldr	r1, [r2, #24]
 800199c:	00c0      	lsls	r0, r0, #3
 800199e:	4201      	tst	r1, r0
 80019a0:	d005      	beq.n	80019ae <FLASH_SetErrorCode+0x4a>
  { 
    pFlash.ErrorCode |= HAL_FLASH_ERROR_SIZE;
 80019a2:	2108      	movs	r1, #8
 80019a4:	4c19      	ldr	r4, [pc, #100]	; (8001a0c <FLASH_SetErrorCode+0xa8>)
    flags |= FLASH_FLAG_SIZERR;
 80019a6:	4303      	orrs	r3, r0
    pFlash.ErrorCode |= HAL_FLASH_ERROR_SIZE;
 80019a8:	6965      	ldr	r5, [r4, #20]
 80019aa:	4329      	orrs	r1, r5
 80019ac:	6161      	str	r1, [r4, #20]
  }
  if(__HAL_FLASH_GET_FLAG(FLASH_FLAG_OPTVERR))
 80019ae:	2080      	movs	r0, #128	; 0x80
 80019b0:	6991      	ldr	r1, [r2, #24]
 80019b2:	0100      	lsls	r0, r0, #4
 80019b4:	4201      	tst	r1, r0
 80019b6:	d005      	beq.n	80019c4 <FLASH_SetErrorCode+0x60>
     *           cut of the STM32L031xx device or the first cut of the STM32L041xx
     *           device, this error should be ignored. The revId of the device
     *           can be retrieved via the HAL_GetREVID() function.
     *
     */
    pFlash.ErrorCode |= HAL_FLASH_ERROR_OPTV;
 80019b8:	2104      	movs	r1, #4
 80019ba:	4c14      	ldr	r4, [pc, #80]	; (8001a0c <FLASH_SetErrorCode+0xa8>)
    flags |= FLASH_FLAG_OPTVERR;
 80019bc:	4303      	orrs	r3, r0
    pFlash.ErrorCode |= HAL_FLASH_ERROR_OPTV;
 80019be:	6965      	ldr	r5, [r4, #20]
 80019c0:	4329      	orrs	r1, r5
 80019c2:	6161      	str	r1, [r4, #20]
  }

  if(__HAL_FLASH_GET_FLAG(FLASH_FLAG_RDERR))
 80019c4:	2080      	movs	r0, #128	; 0x80
 80019c6:	6991      	ldr	r1, [r2, #24]
 80019c8:	0180      	lsls	r0, r0, #6
 80019ca:	4201      	tst	r1, r0
 80019cc:	d005      	beq.n	80019da <FLASH_SetErrorCode+0x76>
  {
    pFlash.ErrorCode |= HAL_FLASH_ERROR_RD;
 80019ce:	2110      	movs	r1, #16
 80019d0:	4c0e      	ldr	r4, [pc, #56]	; (8001a0c <FLASH_SetErrorCode+0xa8>)
    flags |= FLASH_FLAG_RDERR;
 80019d2:	4303      	orrs	r3, r0
    pFlash.ErrorCode |= HAL_FLASH_ERROR_RD;
 80019d4:	6965      	ldr	r5, [r4, #20]
 80019d6:	4329      	orrs	r1, r5
 80019d8:	6161      	str	r1, [r4, #20]
  }
  if(__HAL_FLASH_GET_FLAG(FLASH_FLAG_FWWERR))
 80019da:	6991      	ldr	r1, [r2, #24]
 80019dc:	0389      	lsls	r1, r1, #14
 80019de:	d505      	bpl.n	80019ec <FLASH_SetErrorCode+0x88>
  { 
    pFlash.ErrorCode |= HAL_FLASH_ERROR_FWWERR;
 80019e0:	2020      	movs	r0, #32
 80019e2:	4c0a      	ldr	r4, [pc, #40]	; (8001a0c <FLASH_SetErrorCode+0xa8>)
    flags |= HAL_FLASH_ERROR_FWWERR;
 80019e4:	4303      	orrs	r3, r0
    pFlash.ErrorCode |= HAL_FLASH_ERROR_FWWERR;
 80019e6:	6961      	ldr	r1, [r4, #20]
 80019e8:	4301      	orrs	r1, r0
 80019ea:	6161      	str	r1, [r4, #20]
  }
  if(__HAL_FLASH_GET_FLAG(FLASH_FLAG_NOTZEROERR))
 80019ec:	2080      	movs	r0, #128	; 0x80
 80019ee:	6991      	ldr	r1, [r2, #24]
 80019f0:	0240      	lsls	r0, r0, #9
 80019f2:	4201      	tst	r1, r0
 80019f4:	d005      	beq.n	8001a02 <FLASH_SetErrorCode+0x9e>
  { 
    pFlash.ErrorCode |= HAL_FLASH_ERROR_NOTZERO;
 80019f6:	2140      	movs	r1, #64	; 0x40
 80019f8:	4c04      	ldr	r4, [pc, #16]	; (8001a0c <FLASH_SetErrorCode+0xa8>)
    flags |= FLASH_FLAG_NOTZEROERR;
 80019fa:	4303      	orrs	r3, r0
    pFlash.ErrorCode |= HAL_FLASH_ERROR_NOTZERO;
 80019fc:	6965      	ldr	r5, [r4, #20]
 80019fe:	4329      	orrs	r1, r5
 8001a00:	6161      	str	r1, [r4, #20]
  }

  /* Clear FLASH error pending bits */
  __HAL_FLASH_CLEAR_FLAG(flags);
 8001a02:	6193      	str	r3, [r2, #24]
}  
 8001a04:	bd30      	pop	{r4, r5, pc}
 8001a06:	46c0      	nop			; (mov r8, r8)
 8001a08:	40022000 	.word	0x40022000
 8001a0c:	20000144 	.word	0x20000144

08001a10 <FLASH_WaitForLastOperation>:
{
 8001a10:	b570      	push	{r4, r5, r6, lr}
 8001a12:	0004      	movs	r4, r0
  uint32_t tickstart = HAL_GetTick();
 8001a14:	f7ff ff4a 	bl	80018ac <HAL_GetTick>
  while(__HAL_FLASH_GET_FLAG(FLASH_FLAG_BSY)) 
 8001a18:	2601      	movs	r6, #1
  uint32_t tickstart = HAL_GetTick();
 8001a1a:	0005      	movs	r5, r0
  while(__HAL_FLASH_GET_FLAG(FLASH_FLAG_BSY)) 
 8001a1c:	4a19      	ldr	r2, [pc, #100]	; (8001a84 <FLASH_WaitForLastOperation+0x74>)
 8001a1e:	0013      	movs	r3, r2
 8001a20:	6991      	ldr	r1, [r2, #24]
 8001a22:	4231      	tst	r1, r6
 8001a24:	d121      	bne.n	8001a6a <FLASH_WaitForLastOperation+0x5a>
  if (__HAL_FLASH_GET_FLAG(FLASH_FLAG_EOP))
 8001a26:	2102      	movs	r1, #2
 8001a28:	6990      	ldr	r0, [r2, #24]
 8001a2a:	4208      	tst	r0, r1
 8001a2c:	d000      	beq.n	8001a30 <FLASH_WaitForLastOperation+0x20>
    __HAL_FLASH_CLEAR_FLAG(FLASH_FLAG_EOP);
 8001a2e:	6191      	str	r1, [r2, #24]
  if( __HAL_FLASH_GET_FLAG(FLASH_FLAG_WRPERR)     || 
 8001a30:	699a      	ldr	r2, [r3, #24]
 8001a32:	05d2      	lsls	r2, r2, #23
 8001a34:	d415      	bmi.n	8001a62 <FLASH_WaitForLastOperation+0x52>
      __HAL_FLASH_GET_FLAG(FLASH_FLAG_PGAERR)     || 
 8001a36:	699a      	ldr	r2, [r3, #24]
  if( __HAL_FLASH_GET_FLAG(FLASH_FLAG_WRPERR)     || 
 8001a38:	0592      	lsls	r2, r2, #22
 8001a3a:	d412      	bmi.n	8001a62 <FLASH_WaitForLastOperation+0x52>
      __HAL_FLASH_GET_FLAG(FLASH_FLAG_SIZERR)     || 
 8001a3c:	699a      	ldr	r2, [r3, #24]
      __HAL_FLASH_GET_FLAG(FLASH_FLAG_PGAERR)     || 
 8001a3e:	0552      	lsls	r2, r2, #21
 8001a40:	d40f      	bmi.n	8001a62 <FLASH_WaitForLastOperation+0x52>
      __HAL_FLASH_GET_FLAG(FLASH_FLAG_OPTVERR)    || 
 8001a42:	699a      	ldr	r2, [r3, #24]
      __HAL_FLASH_GET_FLAG(FLASH_FLAG_SIZERR)     || 
 8001a44:	0512      	lsls	r2, r2, #20
 8001a46:	d40c      	bmi.n	8001a62 <FLASH_WaitForLastOperation+0x52>
      __HAL_FLASH_GET_FLAG(FLASH_FLAG_RDERR)      || 
 8001a48:	699a      	ldr	r2, [r3, #24]
      __HAL_FLASH_GET_FLAG(FLASH_FLAG_OPTVERR)    || 
 8001a4a:	0492      	lsls	r2, r2, #18
 8001a4c:	d409      	bmi.n	8001a62 <FLASH_WaitForLastOperation+0x52>
      __HAL_FLASH_GET_FLAG(FLASH_FLAG_FWWERR)     || 
 8001a4e:	6999      	ldr	r1, [r3, #24]
 8001a50:	2280      	movs	r2, #128	; 0x80
 8001a52:	0008      	movs	r0, r1
 8001a54:	0292      	lsls	r2, r2, #10
 8001a56:	4010      	ands	r0, r2
      __HAL_FLASH_GET_FLAG(FLASH_FLAG_RDERR)      || 
 8001a58:	4211      	tst	r1, r2
 8001a5a:	d102      	bne.n	8001a62 <FLASH_WaitForLastOperation+0x52>
      __HAL_FLASH_GET_FLAG(FLASH_FLAG_NOTZEROERR) )
 8001a5c:	699b      	ldr	r3, [r3, #24]
      __HAL_FLASH_GET_FLAG(FLASH_FLAG_FWWERR)     || 
 8001a5e:	03db      	lsls	r3, r3, #15
 8001a60:	d508      	bpl.n	8001a74 <FLASH_WaitForLastOperation+0x64>
    FLASH_SetErrorCode();
 8001a62:	f7ff ff7f 	bl	8001964 <FLASH_SetErrorCode>
    return HAL_ERROR;
 8001a66:	2001      	movs	r0, #1
 8001a68:	e004      	b.n	8001a74 <FLASH_WaitForLastOperation+0x64>
    if (Timeout != HAL_MAX_DELAY)
 8001a6a:	1c61      	adds	r1, r4, #1
 8001a6c:	d0d8      	beq.n	8001a20 <FLASH_WaitForLastOperation+0x10>
      if((Timeout == 0U) || ((HAL_GetTick()-tickstart) > Timeout))
 8001a6e:	2c00      	cmp	r4, #0
 8001a70:	d101      	bne.n	8001a76 <FLASH_WaitForLastOperation+0x66>
        return HAL_TIMEOUT;
 8001a72:	2003      	movs	r0, #3
}
 8001a74:	bd70      	pop	{r4, r5, r6, pc}
      if((Timeout == 0U) || ((HAL_GetTick()-tickstart) > Timeout))
 8001a76:	f7ff ff19 	bl	80018ac <HAL_GetTick>
 8001a7a:	1b40      	subs	r0, r0, r5
 8001a7c:	42a0      	cmp	r0, r4
 8001a7e:	d9cd      	bls.n	8001a1c <FLASH_WaitForLastOperation+0xc>
 8001a80:	e7f7      	b.n	8001a72 <FLASH_WaitForLastOperation+0x62>
 8001a82:	46c0      	nop			; (mov r8, r8)
 8001a84:	40022000 	.word	0x40022000

08001a88 <HAL_FLASHEx_DATAEEPROM_Unlock>:
  */
HAL_StatusTypeDef HAL_FLASHEx_DATAEEPROM_Unlock(void)
{
  uint32_t primask_bit;

  if((FLASH->PECR & FLASH_PECR_PELOCK) != RESET)
 8001a88:	2201      	movs	r2, #1
 8001a8a:	4b08      	ldr	r3, [pc, #32]	; (8001aac <HAL_FLASHEx_DATAEEPROM_Unlock+0x24>)
    {
      return HAL_ERROR;
    }
  }

  return HAL_OK;  
 8001a8c:	2000      	movs	r0, #0
  if((FLASH->PECR & FLASH_PECR_PELOCK) != RESET)
 8001a8e:	6859      	ldr	r1, [r3, #4]
 8001a90:	4211      	tst	r1, r2
 8001a92:	d00a      	beq.n	8001aaa <HAL_FLASHEx_DATAEEPROM_Unlock+0x22>
 */
__STATIC_FORCEINLINE uint32_t __get_PRIMASK(void)
{
  uint32_t result;

  __ASM volatile ("MRS %0, primask" : "=r" (result) :: "memory");
 8001a94:	f3ef 8110 	mrs	r1, PRIMASK
  __ASM volatile ("cpsid i" : : : "memory");
 8001a98:	b672      	cpsid	i
    FLASH->PEKEYR = FLASH_PEKEY1;
 8001a9a:	4805      	ldr	r0, [pc, #20]	; (8001ab0 <HAL_FLASHEx_DATAEEPROM_Unlock+0x28>)
 8001a9c:	60d8      	str	r0, [r3, #12]
    FLASH->PEKEYR = FLASH_PEKEY2;
 8001a9e:	4805      	ldr	r0, [pc, #20]	; (8001ab4 <HAL_FLASHEx_DATAEEPROM_Unlock+0x2c>)
 8001aa0:	60d8      	str	r0, [r3, #12]
  \details Assigns the given value to the Priority Mask Register.
  \param [in]    priMask  Priority Mask
 */
__STATIC_FORCEINLINE void __set_PRIMASK(uint32_t priMask)
{
  __ASM volatile ("MSR primask, %0" : : "r" (priMask) : "memory");
 8001aa2:	f381 8810 	msr	PRIMASK, r1
    if((FLASH->PECR & FLASH_PECR_PELOCK) != RESET)
 8001aa6:	6858      	ldr	r0, [r3, #4]
 8001aa8:	4010      	ands	r0, r2
}
 8001aaa:	4770      	bx	lr
 8001aac:	40022000 	.word	0x40022000
 8001ab0:	89abcdef 	.word	0x89abcdef
 8001ab4:	02030405 	.word	0x02030405

08001ab8 <HAL_FLASHEx_DATAEEPROM_Lock>:
  * @retval HAL_StatusTypeDef HAL Status
  */
HAL_StatusTypeDef HAL_FLASHEx_DATAEEPROM_Lock(void)
{
  /* Set the PELOCK Bit to lock the data memory and FLASH_PECR register access */
  SET_BIT(FLASH->PECR, FLASH_PECR_PELOCK);
 8001ab8:	2301      	movs	r3, #1
 8001aba:	4a03      	ldr	r2, [pc, #12]	; (8001ac8 <HAL_FLASHEx_DATAEEPROM_Lock+0x10>)
  
  return HAL_OK;
}
 8001abc:	2000      	movs	r0, #0
  SET_BIT(FLASH->PECR, FLASH_PECR_PELOCK);
 8001abe:	6851      	ldr	r1, [r2, #4]
 8001ac0:	430b      	orrs	r3, r1
 8001ac2:	6053      	str	r3, [r2, #4]
}
 8001ac4:	4770      	bx	lr
 8001ac6:	46c0      	nop			; (mov r8, r8)
 8001ac8:	40022000 	.word	0x40022000

08001acc <HAL_FLASHEx_DATAEEPROM_Erase>:
  *         and Flash program erase control register access(recommended to protect 
  *         the DATA_EEPROM against possible unwanted operation).
  * @retval HAL_StatusTypeDef HAL Status
  */
HAL_StatusTypeDef HAL_FLASHEx_DATAEEPROM_Erase(uint32_t Address)
{
 8001acc:	b510      	push	{r4, lr}
 8001ace:	0004      	movs	r4, r0
  
  /* Check the parameters */
  assert_param(IS_FLASH_DATA_ADDRESS(Address));
  
  /* Wait for last operation to be completed */
  status = FLASH_WaitForLastOperation(FLASH_TIMEOUT_VALUE);
 8001ad0:	4805      	ldr	r0, [pc, #20]	; (8001ae8 <HAL_FLASHEx_DATAEEPROM_Erase+0x1c>)
 8001ad2:	f7ff ff9d 	bl	8001a10 <FLASH_WaitForLastOperation>
  
  if(status == HAL_OK)
 8001ad6:	2800      	cmp	r0, #0
 8001ad8:	d105      	bne.n	8001ae6 <HAL_FLASHEx_DATAEEPROM_Erase+0x1a>
  {
    /* Clean the error context */
    pFlash.ErrorCode = HAL_FLASH_ERROR_NONE;
 8001ada:	4b04      	ldr	r3, [pc, #16]	; (8001aec <HAL_FLASHEx_DATAEEPROM_Erase+0x20>)
 8001adc:	6158      	str	r0, [r3, #20]

      /* Write 00000000h to valid address in the data memory */
      *(__IO uint32_t *) Address = 0x00000000U;
 8001ade:	6020      	str	r0, [r4, #0]

    status = FLASH_WaitForLastOperation(FLASH_TIMEOUT_VALUE);
 8001ae0:	4801      	ldr	r0, [pc, #4]	; (8001ae8 <HAL_FLASHEx_DATAEEPROM_Erase+0x1c>)
 8001ae2:	f7ff ff95 	bl	8001a10 <FLASH_WaitForLastOperation>
  }
   
  /* Return the erase status */
  return status;
}  
 8001ae6:	bd10      	pop	{r4, pc}
 8001ae8:	0000c350 	.word	0x0000c350
 8001aec:	20000144 	.word	0x20000144

08001af0 <HAL_FLASHEx_DATAEEPROM_Program>:
  * 
  * @retval HAL_StatusTypeDef HAL Status
  */

HAL_StatusTypeDef   HAL_FLASHEx_DATAEEPROM_Program(uint32_t TypeProgram, uint32_t Address, uint32_t Data)
{
 8001af0:	b5f8      	push	{r3, r4, r5, r6, r7, lr}
  HAL_StatusTypeDef status = HAL_ERROR;
  
  /* Process Locked */
  __HAL_LOCK(&pFlash);
 8001af2:	4f12      	ldr	r7, [pc, #72]	; (8001b3c <HAL_FLASHEx_DATAEEPROM_Program+0x4c>)
{
 8001af4:	0006      	movs	r6, r0
  __HAL_LOCK(&pFlash);
 8001af6:	7c3b      	ldrb	r3, [r7, #16]
{
 8001af8:	000d      	movs	r5, r1
 8001afa:	0014      	movs	r4, r2
  __HAL_LOCK(&pFlash);
 8001afc:	2002      	movs	r0, #2
 8001afe:	2b01      	cmp	r3, #1
 8001b00:	d00c      	beq.n	8001b1c <HAL_FLASHEx_DATAEEPROM_Program+0x2c>
 8001b02:	2301      	movs	r3, #1
  /* Check the parameters */
  assert_param(IS_TYPEPROGRAMDATA(TypeProgram));
  assert_param(IS_FLASH_DATA_ADDRESS(Address));

  /* Wait for last operation to be completed */
  status = FLASH_WaitForLastOperation(FLASH_TIMEOUT_VALUE);
 8001b04:	480e      	ldr	r0, [pc, #56]	; (8001b40 <HAL_FLASHEx_DATAEEPROM_Program+0x50>)
  __HAL_LOCK(&pFlash);
 8001b06:	743b      	strb	r3, [r7, #16]
  status = FLASH_WaitForLastOperation(FLASH_TIMEOUT_VALUE);
 8001b08:	f7ff ff82 	bl	8001a10 <FLASH_WaitForLastOperation>
  
  if(status == HAL_OK)
 8001b0c:	2800      	cmp	r0, #0
 8001b0e:	d103      	bne.n	8001b18 <HAL_FLASHEx_DATAEEPROM_Program+0x28>
  {
    /* Clean the error context */
    pFlash.ErrorCode = HAL_FLASH_ERROR_NONE;
 8001b10:	6178      	str	r0, [r7, #20]

    if(TypeProgram == FLASH_TYPEPROGRAMDATA_WORD)
 8001b12:	2e02      	cmp	r6, #2
 8001b14:	d103      	bne.n	8001b1e <HAL_FLASHEx_DATAEEPROM_Program+0x2e>
    {
      /* Program word (32-bit) at a specified address.*/
      *(__IO uint32_t *)Address = Data;
 8001b16:	602c      	str	r4, [r5, #0]
      status = FLASH_WaitForLastOperation(FLASH_TIMEOUT_VALUE);
    }
  }

  /* Process Unlocked */
  __HAL_UNLOCK(&pFlash);
 8001b18:	2300      	movs	r3, #0
 8001b1a:	743b      	strb	r3, [r7, #16]

  return status;
}
 8001b1c:	bdf8      	pop	{r3, r4, r5, r6, r7, pc}
    else if(TypeProgram == FLASH_TYPEPROGRAMDATA_HALFWORD)
 8001b1e:	2e01      	cmp	r6, #1
 8001b20:	d102      	bne.n	8001b28 <HAL_FLASHEx_DATAEEPROM_Program+0x38>
      *(__IO uint16_t *)Address = (uint16_t) Data;
 8001b22:	b2a4      	uxth	r4, r4
 8001b24:	802c      	strh	r4, [r5, #0]
 8001b26:	e7f7      	b.n	8001b18 <HAL_FLASHEx_DATAEEPROM_Program+0x28>
    else if(TypeProgram == FLASH_TYPEPROGRAMDATA_BYTE)
 8001b28:	2e00      	cmp	r6, #0
 8001b2a:	d003      	beq.n	8001b34 <HAL_FLASHEx_DATAEEPROM_Program+0x44>
      status = FLASH_WaitForLastOperation(FLASH_TIMEOUT_VALUE);
 8001b2c:	4804      	ldr	r0, [pc, #16]	; (8001b40 <HAL_FLASHEx_DATAEEPROM_Program+0x50>)
 8001b2e:	f7ff ff6f 	bl	8001a10 <FLASH_WaitForLastOperation>
 8001b32:	e7f1      	b.n	8001b18 <HAL_FLASHEx_DATAEEPROM_Program+0x28>
      *(__IO uint8_t *)Address = (uint8_t) Data;
 8001b34:	b2e4      	uxtb	r4, r4
 8001b36:	702c      	strb	r4, [r5, #0]
 8001b38:	e7ee      	b.n	8001b18 <HAL_FLASHEx_DATAEEPROM_Program+0x28>
 8001b3a:	46c0      	nop			; (mov r8, r8)
 8001b3c:	20000144 	.word	0x20000144
 8001b40:	0000c350 	.word	0x0000c350

08001b44 <HAL_GPIO_Init>:
  *                    the configuration information for the specified GPIO peripheral.
  * @retval None
  */
void HAL_GPIO_Init(GPIO_TypeDef  *GPIOx, GPIO_InitTypeDef *GPIO_Init)
{
  uint32_t position = 0x00U;
 8001b44:	2300      	movs	r3, #0
{
 8001b46:	b5f0      	push	{r4, r5, r6, r7, lr}
 8001b48:	b085      	sub	sp, #20
  assert_param(IS_GPIO_MODE(GPIO_Init->Mode));
  assert_param(IS_GPIO_PULL(GPIO_Init->Pull));
  assert_param(IS_GPIO_PIN_AVAILABLE(GPIOx, (GPIO_Init->Pin)));

  /* Configure the port pins */
  while (((GPIO_Init->Pin) >> position) != 0)
 8001b4a:	680a      	ldr	r2, [r1, #0]
 8001b4c:	0014      	movs	r4, r2
 8001b4e:	40dc      	lsrs	r4, r3
 8001b50:	d101      	bne.n	8001b56 <HAL_GPIO_Init+0x12>
        EXTI->FTSR = temp;
      }
    }
    position++;
  }
}
 8001b52:	b005      	add	sp, #20
 8001b54:	bdf0      	pop	{r4, r5, r6, r7, pc}
    iocurrent = (GPIO_Init->Pin) & (1U << position);
 8001b56:	2401      	movs	r4, #1
 8001b58:	0015      	movs	r5, r2
 8001b5a:	409c      	lsls	r4, r3
 8001b5c:	4025      	ands	r5, r4
 8001b5e:	9502      	str	r5, [sp, #8]
    if (iocurrent)
 8001b60:	4222      	tst	r2, r4
 8001b62:	d100      	bne.n	8001b66 <HAL_GPIO_Init+0x22>
 8001b64:	e089      	b.n	8001c7a <HAL_GPIO_Init+0x136>
      if ((GPIO_Init->Mode == GPIO_MODE_OUTPUT_PP) || (GPIO_Init->Mode == GPIO_MODE_AF_PP) ||
 8001b66:	2510      	movs	r5, #16
 8001b68:	684a      	ldr	r2, [r1, #4]
 8001b6a:	005e      	lsls	r6, r3, #1
 8001b6c:	9201      	str	r2, [sp, #4]
 8001b6e:	43aa      	bics	r2, r5
 8001b70:	3d0d      	subs	r5, #13
 8001b72:	40b5      	lsls	r5, r6
 8001b74:	4694      	mov	ip, r2
 8001b76:	3a01      	subs	r2, #1
 8001b78:	43ed      	mvns	r5, r5
 8001b7a:	2a01      	cmp	r2, #1
 8001b7c:	d80f      	bhi.n	8001b9e <HAL_GPIO_Init+0x5a>
        temp |= (GPIO_Init->Speed << (position * 2U));
 8001b7e:	68ca      	ldr	r2, [r1, #12]
        temp = GPIOx->OSPEEDR;
 8001b80:	6887      	ldr	r7, [r0, #8]
        temp |= (GPIO_Init->Speed << (position * 2U));
 8001b82:	40b2      	lsls	r2, r6
        temp &= ~(GPIO_OSPEEDER_OSPEED0 << (position * 2U));
 8001b84:	402f      	ands	r7, r5
        temp |= (GPIO_Init->Speed << (position * 2U));
 8001b86:	433a      	orrs	r2, r7
        temp |= (((GPIO_Init->Mode & GPIO_OUTPUT_TYPE) >> 4U) << position);
 8001b88:	2701      	movs	r7, #1
        GPIOx->OSPEEDR = temp;
 8001b8a:	6082      	str	r2, [r0, #8]
        temp = GPIOx->OTYPER;
 8001b8c:	6842      	ldr	r2, [r0, #4]
        temp &= ~(GPIO_OTYPER_OT_0 << position) ;
 8001b8e:	43a2      	bics	r2, r4
 8001b90:	0014      	movs	r4, r2
        temp |= (((GPIO_Init->Mode & GPIO_OUTPUT_TYPE) >> 4U) << position);
 8001b92:	9a01      	ldr	r2, [sp, #4]
 8001b94:	0912      	lsrs	r2, r2, #4
 8001b96:	403a      	ands	r2, r7
 8001b98:	409a      	lsls	r2, r3
 8001b9a:	4322      	orrs	r2, r4
        GPIOx->OTYPER = temp;
 8001b9c:	6042      	str	r2, [r0, #4]
      temp |= ((GPIO_Init->Pull) << (position * 2U));
 8001b9e:	688a      	ldr	r2, [r1, #8]
      temp = GPIOx->PUPDR;
 8001ba0:	68c4      	ldr	r4, [r0, #12]
      temp |= ((GPIO_Init->Pull) << (position * 2U));
 8001ba2:	40b2      	lsls	r2, r6
      temp &= ~(GPIO_PUPDR_PUPD0 << (position * 2U));
 8001ba4:	402c      	ands	r4, r5
      temp |= ((GPIO_Init->Pull) << (position * 2U));
 8001ba6:	4322      	orrs	r2, r4
      GPIOx->PUPDR = temp;
 8001ba8:	60c2      	str	r2, [r0, #12]
      if ((GPIO_Init->Mode == GPIO_MODE_AF_PP) || (GPIO_Init->Mode == GPIO_MODE_AF_OD))
 8001baa:	4662      	mov	r2, ip
 8001bac:	2a02      	cmp	r2, #2
 8001bae:	d10f      	bne.n	8001bd0 <HAL_GPIO_Init+0x8c>
        temp = GPIOx->AFR[position >> 3U];
 8001bb0:	08da      	lsrs	r2, r3, #3
        temp &= ~(0xFUL << ((uint32_t)(position & 0x07UL) * 4U));
 8001bb2:	2407      	movs	r4, #7
 8001bb4:	0092      	lsls	r2, r2, #2
 8001bb6:	1882      	adds	r2, r0, r2
        temp = GPIOx->AFR[position >> 3U];
 8001bb8:	6a17      	ldr	r7, [r2, #32]
        temp &= ~(0xFUL << ((uint32_t)(position & 0x07UL) * 4U));
 8001bba:	9203      	str	r2, [sp, #12]
 8001bbc:	220f      	movs	r2, #15
 8001bbe:	401c      	ands	r4, r3
 8001bc0:	00a4      	lsls	r4, r4, #2
 8001bc2:	40a2      	lsls	r2, r4
 8001bc4:	4397      	bics	r7, r2
        temp |= ((uint32_t)(GPIO_Init->Alternate) << (((uint32_t)position & (uint32_t)0x07U) * 4U));
 8001bc6:	690a      	ldr	r2, [r1, #16]
 8001bc8:	40a2      	lsls	r2, r4
 8001bca:	4317      	orrs	r7, r2
        GPIOx->AFR[position >> 3U] = temp;
 8001bcc:	9a03      	ldr	r2, [sp, #12]
 8001bce:	6217      	str	r7, [r2, #32]
      temp |= ((GPIO_Init->Mode & GPIO_MODE) << (position * 2U));
 8001bd0:	2403      	movs	r4, #3
      temp = GPIOx->MODER;
 8001bd2:	6802      	ldr	r2, [r0, #0]
      temp &= ~(GPIO_MODER_MODE0 << (position * 2U));
 8001bd4:	4015      	ands	r5, r2
      temp |= ((GPIO_Init->Mode & GPIO_MODE) << (position * 2U));
 8001bd6:	9a01      	ldr	r2, [sp, #4]
 8001bd8:	4022      	ands	r2, r4
 8001bda:	40b2      	lsls	r2, r6
      if ((GPIO_Init->Mode & EXTI_MODE) == EXTI_MODE)
 8001bdc:	2480      	movs	r4, #128	; 0x80
      temp |= ((GPIO_Init->Mode & GPIO_MODE) << (position * 2U));
 8001bde:	4315      	orrs	r5, r2
      if ((GPIO_Init->Mode & EXTI_MODE) == EXTI_MODE)
 8001be0:	9a01      	ldr	r2, [sp, #4]
 8001be2:	0564      	lsls	r4, r4, #21
      GPIOx->MODER = temp;
 8001be4:	6005      	str	r5, [r0, #0]
      if ((GPIO_Init->Mode & EXTI_MODE) == EXTI_MODE)
 8001be6:	4222      	tst	r2, r4
 8001be8:	d047      	beq.n	8001c7a <HAL_GPIO_Init+0x136>
        __HAL_RCC_SYSCFG_CLK_ENABLE();
 8001bea:	2501      	movs	r5, #1
        CLEAR_BIT(temp, (0x0FUL) << (4U * (position & 0x03U)));
 8001bec:	270f      	movs	r7, #15
        __HAL_RCC_SYSCFG_CLK_ENABLE();
 8001bee:	4c24      	ldr	r4, [pc, #144]	; (8001c80 <HAL_GPIO_Init+0x13c>)
 8001bf0:	6b62      	ldr	r2, [r4, #52]	; 0x34
 8001bf2:	432a      	orrs	r2, r5
        CLEAR_BIT(temp, (0x0FUL) << (4U * (position & 0x03U)));
 8001bf4:	3502      	adds	r5, #2
 8001bf6:	401d      	ands	r5, r3
 8001bf8:	00ad      	lsls	r5, r5, #2
 8001bfa:	40af      	lsls	r7, r5
        __HAL_RCC_SYSCFG_CLK_ENABLE();
 8001bfc:	6362      	str	r2, [r4, #52]	; 0x34
        temp = SYSCFG->EXTICR[position >> 2U];
 8001bfe:	4a21      	ldr	r2, [pc, #132]	; (8001c84 <HAL_GPIO_Init+0x140>)
 8001c00:	089c      	lsrs	r4, r3, #2
 8001c02:	00a4      	lsls	r4, r4, #2
 8001c04:	18a4      	adds	r4, r4, r2
 8001c06:	68a6      	ldr	r6, [r4, #8]
        SET_BIT(temp, (GPIO_GET_INDEX(GPIOx)) << (4 * (position & 0x03U)));
 8001c08:	2200      	movs	r2, #0
        CLEAR_BIT(temp, (0x0FUL) << (4U * (position & 0x03U)));
 8001c0a:	43be      	bics	r6, r7
        SET_BIT(temp, (GPIO_GET_INDEX(GPIOx)) << (4 * (position & 0x03U)));
 8001c0c:	27a0      	movs	r7, #160	; 0xa0
 8001c0e:	05ff      	lsls	r7, r7, #23
 8001c10:	42b8      	cmp	r0, r7
 8001c12:	d008      	beq.n	8001c26 <HAL_GPIO_Init+0xe2>
 8001c14:	4f1c      	ldr	r7, [pc, #112]	; (8001c88 <HAL_GPIO_Init+0x144>)
 8001c16:	3201      	adds	r2, #1
 8001c18:	42b8      	cmp	r0, r7
 8001c1a:	d004      	beq.n	8001c26 <HAL_GPIO_Init+0xe2>
 8001c1c:	4f1b      	ldr	r7, [pc, #108]	; (8001c8c <HAL_GPIO_Init+0x148>)
 8001c1e:	3201      	adds	r2, #1
 8001c20:	42b8      	cmp	r0, r7
 8001c22:	d000      	beq.n	8001c26 <HAL_GPIO_Init+0xe2>
 8001c24:	3204      	adds	r2, #4
 8001c26:	40aa      	lsls	r2, r5
 8001c28:	4332      	orrs	r2, r6
        SYSCFG->EXTICR[position >> 2U] = temp;
 8001c2a:	60a2      	str	r2, [r4, #8]
        temp = EXTI->IMR;
 8001c2c:	4a18      	ldr	r2, [pc, #96]	; (8001c90 <HAL_GPIO_Init+0x14c>)
        temp &= ~((uint32_t)iocurrent);
 8001c2e:	9c02      	ldr	r4, [sp, #8]
        temp = EXTI->IMR;
 8001c30:	6816      	ldr	r6, [r2, #0]
          temp |= iocurrent;
 8001c32:	9d02      	ldr	r5, [sp, #8]
        if ((GPIO_Init->Mode & GPIO_MODE_IT) == GPIO_MODE_IT)
 8001c34:	9f01      	ldr	r7, [sp, #4]
        temp &= ~((uint32_t)iocurrent);
 8001c36:	43e4      	mvns	r4, r4
          temp |= iocurrent;
 8001c38:	4335      	orrs	r5, r6
        if ((GPIO_Init->Mode & GPIO_MODE_IT) == GPIO_MODE_IT)
 8001c3a:	03ff      	lsls	r7, r7, #15
 8001c3c:	d401      	bmi.n	8001c42 <HAL_GPIO_Init+0xfe>
        temp &= ~((uint32_t)iocurrent);
 8001c3e:	0035      	movs	r5, r6
 8001c40:	4025      	ands	r5, r4
        EXTI->IMR = temp;
 8001c42:	6015      	str	r5, [r2, #0]
        temp = EXTI->EMR;
 8001c44:	6856      	ldr	r6, [r2, #4]
          temp |= iocurrent;
 8001c46:	9d02      	ldr	r5, [sp, #8]
        if ((GPIO_Init->Mode & GPIO_MODE_EVT) == GPIO_MODE_EVT)
 8001c48:	9f01      	ldr	r7, [sp, #4]
          temp |= iocurrent;
 8001c4a:	4335      	orrs	r5, r6
        if ((GPIO_Init->Mode & GPIO_MODE_EVT) == GPIO_MODE_EVT)
 8001c4c:	03bf      	lsls	r7, r7, #14
 8001c4e:	d401      	bmi.n	8001c54 <HAL_GPIO_Init+0x110>
        temp &= ~((uint32_t)iocurrent);
 8001c50:	0035      	movs	r5, r6
 8001c52:	4025      	ands	r5, r4
        EXTI->EMR = temp;
 8001c54:	6055      	str	r5, [r2, #4]
        temp = EXTI->RTSR;
 8001c56:	6896      	ldr	r6, [r2, #8]
          temp |= iocurrent;
 8001c58:	9d02      	ldr	r5, [sp, #8]
        if ((GPIO_Init->Mode & RISING_EDGE) == RISING_EDGE)
 8001c5a:	9f01      	ldr	r7, [sp, #4]
          temp |= iocurrent;
 8001c5c:	4335      	orrs	r5, r6
        if ((GPIO_Init->Mode & RISING_EDGE) == RISING_EDGE)
 8001c5e:	02ff      	lsls	r7, r7, #11
 8001c60:	d401      	bmi.n	8001c66 <HAL_GPIO_Init+0x122>
        temp &= ~((uint32_t)iocurrent);
 8001c62:	0035      	movs	r5, r6
 8001c64:	4025      	ands	r5, r4
        EXTI->RTSR = temp;
 8001c66:	6095      	str	r5, [r2, #8]
        temp = EXTI->FTSR;
 8001c68:	68d5      	ldr	r5, [r2, #12]
          temp |= iocurrent;
 8001c6a:	9e02      	ldr	r6, [sp, #8]
        if ((GPIO_Init->Mode & FALLING_EDGE) == FALLING_EDGE)
 8001c6c:	9f01      	ldr	r7, [sp, #4]
          temp |= iocurrent;
 8001c6e:	432e      	orrs	r6, r5
        if ((GPIO_Init->Mode & FALLING_EDGE) == FALLING_EDGE)
 8001c70:	02bf      	lsls	r7, r7, #10
 8001c72:	d401      	bmi.n	8001c78 <HAL_GPIO_Init+0x134>
        temp &= ~((uint32_t)iocurrent);
 8001c74:	4025      	ands	r5, r4
 8001c76:	002e      	movs	r6, r5
        EXTI->FTSR = temp;
 8001c78:	60d6      	str	r6, [r2, #12]
    position++;
 8001c7a:	3301      	adds	r3, #1
 8001c7c:	e765      	b.n	8001b4a <HAL_GPIO_Init+0x6>
 8001c7e:	46c0      	nop			; (mov r8, r8)
 8001c80:	40021000 	.word	0x40021000
 8001c84:	40010000 	.word	0x40010000
 8001c88:	50000400 	.word	0x50000400
 8001c8c:	50000800 	.word	0x50000800
 8001c90:	40010400 	.word	0x40010400

08001c94 <HAL_GPIO_ReadPin>:
  GPIO_PinState bitstatus;

  /* Check the parameters */
  assert_param(IS_GPIO_PIN_AVAILABLE(GPIOx, GPIO_Pin));

  if ((GPIOx->IDR & GPIO_Pin) != (uint32_t)GPIO_PIN_RESET)
 8001c94:	6900      	ldr	r0, [r0, #16]
 8001c96:	4008      	ands	r0, r1
 8001c98:	1e41      	subs	r1, r0, #1
 8001c9a:	4188      	sbcs	r0, r1
  }
  else
  {
    bitstatus = GPIO_PIN_RESET;
  }
  return bitstatus;
 8001c9c:	b2c0      	uxtb	r0, r0
}
 8001c9e:	4770      	bx	lr

08001ca0 <I2C_Flush_TXDR>:
  */
static void I2C_Flush_TXDR(I2C_HandleTypeDef *hi2c)
{
  /* If a pending TXIS flag is set */
  /* Write a dummy data in TXDR to clear it */
  if (__HAL_I2C_GET_FLAG(hi2c, I2C_FLAG_TXIS) != RESET)
 8001ca0:	6803      	ldr	r3, [r0, #0]
 8001ca2:	699a      	ldr	r2, [r3, #24]
 8001ca4:	0792      	lsls	r2, r2, #30
 8001ca6:	d501      	bpl.n	8001cac <I2C_Flush_TXDR+0xc>
  {
    hi2c->Instance->TXDR = 0x00U;
 8001ca8:	2200      	movs	r2, #0
 8001caa:	629a      	str	r2, [r3, #40]	; 0x28
  }

  /* Flush TX register if not empty */
  if (__HAL_I2C_GET_FLAG(hi2c, I2C_FLAG_TXE) == RESET)
 8001cac:	2201      	movs	r2, #1
 8001cae:	6999      	ldr	r1, [r3, #24]
 8001cb0:	4211      	tst	r1, r2
 8001cb2:	d102      	bne.n	8001cba <I2C_Flush_TXDR+0x1a>
  {
    __HAL_I2C_CLEAR_FLAG(hi2c, I2C_FLAG_TXE);
 8001cb4:	6999      	ldr	r1, [r3, #24]
 8001cb6:	430a      	orrs	r2, r1
 8001cb8:	619a      	str	r2, [r3, #24]
  }
}
 8001cba:	4770      	bx	lr

08001cbc <I2C_TransferConfig>:
  *     @arg @ref I2C_GENERATE_START_WRITE Generate Restart for write request.
  * @retval None
  */
static void I2C_TransferConfig(I2C_HandleTypeDef *hi2c, uint16_t DevAddress, uint8_t Size, uint32_t Mode,
                               uint32_t Request)
{
 8001cbc:	b530      	push	{r4, r5, lr}
 8001cbe:	9c03      	ldr	r4, [sp, #12]
  assert_param(IS_I2C_ALL_INSTANCE(hi2c->Instance));
  assert_param(IS_TRANSFER_MODE(Mode));
  assert_param(IS_TRANSFER_REQUEST(Request));

  /* update CR2 register */
  MODIFY_REG(hi2c->Instance->CR2,
 8001cc0:	0412      	lsls	r2, r2, #16
 8001cc2:	6800      	ldr	r0, [r0, #0]
 8001cc4:	4322      	orrs	r2, r4
 8001cc6:	431a      	orrs	r2, r3
 8001cc8:	4b05      	ldr	r3, [pc, #20]	; (8001ce0 <I2C_TransferConfig+0x24>)
 8001cca:	6845      	ldr	r5, [r0, #4]
 8001ccc:	0589      	lsls	r1, r1, #22
 8001cce:	0d64      	lsrs	r4, r4, #21
 8001cd0:	0d89      	lsrs	r1, r1, #22
 8001cd2:	431c      	orrs	r4, r3
 8001cd4:	43a5      	bics	r5, r4
 8001cd6:	430a      	orrs	r2, r1
 8001cd8:	432a      	orrs	r2, r5
 8001cda:	6042      	str	r2, [r0, #4]
             ((I2C_CR2_SADD | I2C_CR2_NBYTES | I2C_CR2_RELOAD | I2C_CR2_AUTOEND | \
               (I2C_CR2_RD_WRN & (uint32_t)(Request >> (31U - I2C_CR2_RD_WRN_Pos))) | I2C_CR2_START | I2C_CR2_STOP)), \
             (uint32_t)(((uint32_t)DevAddress & I2C_CR2_SADD) |
                        (((uint32_t)Size << I2C_CR2_NBYTES_Pos) & I2C_CR2_NBYTES) | (uint32_t)Mode | (uint32_t)Request));
}
 8001cdc:	bd30      	pop	{r4, r5, pc}
 8001cde:	46c0      	nop			; (mov r8, r8)
 8001ce0:	03ff63ff 	.word	0x03ff63ff

08001ce4 <I2C_IsAcknowledgeFailed>:
{
 8001ce4:	b5f8      	push	{r3, r4, r5, r6, r7, lr}
  if (__HAL_I2C_GET_FLAG(hi2c, I2C_FLAG_AF) == SET)
 8001ce6:	6803      	ldr	r3, [r0, #0]
{
 8001ce8:	0016      	movs	r6, r2
  if (__HAL_I2C_GET_FLAG(hi2c, I2C_FLAG_AF) == SET)
 8001cea:	699a      	ldr	r2, [r3, #24]
{
 8001cec:	0004      	movs	r4, r0
  if (__HAL_I2C_GET_FLAG(hi2c, I2C_FLAG_AF) == SET)
 8001cee:	2310      	movs	r3, #16
 8001cf0:	0010      	movs	r0, r2
{
 8001cf2:	000d      	movs	r5, r1
    while (__HAL_I2C_GET_FLAG(hi2c, I2C_FLAG_STOPF) == RESET)
 8001cf4:	2720      	movs	r7, #32
  if (__HAL_I2C_GET_FLAG(hi2c, I2C_FLAG_AF) == SET)
 8001cf6:	4018      	ands	r0, r3
 8001cf8:	421a      	tst	r2, r3
 8001cfa:	d118      	bne.n	8001d2e <I2C_IsAcknowledgeFailed+0x4a>
}
 8001cfc:	bdf8      	pop	{r3, r4, r5, r6, r7, pc}
      if (Timeout != HAL_MAX_DELAY)
 8001cfe:	1c6a      	adds	r2, r5, #1
 8001d00:	d016      	beq.n	8001d30 <I2C_IsAcknowledgeFailed+0x4c>
        if (((HAL_GetTick() - Tickstart) > Timeout) || (Timeout == 0U))
 8001d02:	f7ff fdd3 	bl	80018ac <HAL_GetTick>
 8001d06:	1b80      	subs	r0, r0, r6
 8001d08:	42a8      	cmp	r0, r5
 8001d0a:	d801      	bhi.n	8001d10 <I2C_IsAcknowledgeFailed+0x2c>
 8001d0c:	2d00      	cmp	r5, #0
 8001d0e:	d10e      	bne.n	8001d2e <I2C_IsAcknowledgeFailed+0x4a>
          hi2c->ErrorCode |= HAL_I2C_ERROR_TIMEOUT;
 8001d10:	2220      	movs	r2, #32
 8001d12:	6c63      	ldr	r3, [r4, #68]	; 0x44
 8001d14:	4313      	orrs	r3, r2
 8001d16:	6463      	str	r3, [r4, #68]	; 0x44
          hi2c->State = HAL_I2C_STATE_READY;
 8001d18:	0023      	movs	r3, r4
 8001d1a:	3341      	adds	r3, #65	; 0x41
 8001d1c:	701a      	strb	r2, [r3, #0]
    hi2c->Mode = HAL_I2C_MODE_NONE;
 8001d1e:	0022      	movs	r2, r4
 8001d20:	2300      	movs	r3, #0
 8001d22:	3242      	adds	r2, #66	; 0x42
    __HAL_UNLOCK(hi2c);
 8001d24:	3440      	adds	r4, #64	; 0x40
    hi2c->Mode = HAL_I2C_MODE_NONE;
 8001d26:	7013      	strb	r3, [r2, #0]
    return HAL_ERROR;
 8001d28:	2001      	movs	r0, #1
    __HAL_UNLOCK(hi2c);
 8001d2a:	7023      	strb	r3, [r4, #0]
    return HAL_ERROR;
 8001d2c:	e7e6      	b.n	8001cfc <I2C_IsAcknowledgeFailed+0x18>
    while (__HAL_I2C_GET_FLAG(hi2c, I2C_FLAG_STOPF) == RESET)
 8001d2e:	6823      	ldr	r3, [r4, #0]
 8001d30:	699a      	ldr	r2, [r3, #24]
 8001d32:	423a      	tst	r2, r7
 8001d34:	d0e3      	beq.n	8001cfe <I2C_IsAcknowledgeFailed+0x1a>
    __HAL_I2C_CLEAR_FLAG(hi2c, I2C_FLAG_AF);
 8001d36:	2210      	movs	r2, #16
    I2C_Flush_TXDR(hi2c);
 8001d38:	0020      	movs	r0, r4
    __HAL_I2C_CLEAR_FLAG(hi2c, I2C_FLAG_AF);
 8001d3a:	61da      	str	r2, [r3, #28]
    __HAL_I2C_CLEAR_FLAG(hi2c, I2C_FLAG_STOPF);
 8001d3c:	61df      	str	r7, [r3, #28]
    I2C_Flush_TXDR(hi2c);
 8001d3e:	f7ff ffaf 	bl	8001ca0 <I2C_Flush_TXDR>
    I2C_RESET_CR2(hi2c);
 8001d42:	6822      	ldr	r2, [r4, #0]
 8001d44:	4905      	ldr	r1, [pc, #20]	; (8001d5c <I2C_IsAcknowledgeFailed+0x78>)
 8001d46:	6853      	ldr	r3, [r2, #4]
 8001d48:	400b      	ands	r3, r1
 8001d4a:	6053      	str	r3, [r2, #4]
    hi2c->ErrorCode |= HAL_I2C_ERROR_AF;
 8001d4c:	2304      	movs	r3, #4
 8001d4e:	6c62      	ldr	r2, [r4, #68]	; 0x44
 8001d50:	4313      	orrs	r3, r2
 8001d52:	6463      	str	r3, [r4, #68]	; 0x44
    hi2c->State = HAL_I2C_STATE_READY;
 8001d54:	0023      	movs	r3, r4
 8001d56:	3341      	adds	r3, #65	; 0x41
 8001d58:	701f      	strb	r7, [r3, #0]
 8001d5a:	e7e0      	b.n	8001d1e <I2C_IsAcknowledgeFailed+0x3a>
 8001d5c:	fe00e800 	.word	0xfe00e800

08001d60 <I2C_WaitOnSTOPFlagUntilTimeout>:
{
 8001d60:	b5f8      	push	{r3, r4, r5, r6, r7, lr}
 8001d62:	0004      	movs	r4, r0
 8001d64:	000d      	movs	r5, r1
 8001d66:	0016      	movs	r6, r2
  while (__HAL_I2C_GET_FLAG(hi2c, I2C_FLAG_STOPF) == RESET)
 8001d68:	2720      	movs	r7, #32
 8001d6a:	6823      	ldr	r3, [r4, #0]
 8001d6c:	699b      	ldr	r3, [r3, #24]
 8001d6e:	423b      	tst	r3, r7
 8001d70:	d001      	beq.n	8001d76 <I2C_WaitOnSTOPFlagUntilTimeout+0x16>
  return HAL_OK;
 8001d72:	2000      	movs	r0, #0
}
 8001d74:	bdf8      	pop	{r3, r4, r5, r6, r7, pc}
    if (I2C_IsAcknowledgeFailed(hi2c, Timeout, Tickstart) != HAL_OK)
 8001d76:	0032      	movs	r2, r6
 8001d78:	0029      	movs	r1, r5
 8001d7a:	0020      	movs	r0, r4
 8001d7c:	f7ff ffb2 	bl	8001ce4 <I2C_IsAcknowledgeFailed>
 8001d80:	2800      	cmp	r0, #0
 8001d82:	d113      	bne.n	8001dac <I2C_WaitOnSTOPFlagUntilTimeout+0x4c>
    if (((HAL_GetTick() - Tickstart) > Timeout) || (Timeout == 0U))
 8001d84:	f7ff fd92 	bl	80018ac <HAL_GetTick>
 8001d88:	1b80      	subs	r0, r0, r6
 8001d8a:	42a8      	cmp	r0, r5
 8001d8c:	d801      	bhi.n	8001d92 <I2C_WaitOnSTOPFlagUntilTimeout+0x32>
 8001d8e:	2d00      	cmp	r5, #0
 8001d90:	d1eb      	bne.n	8001d6a <I2C_WaitOnSTOPFlagUntilTimeout+0xa>
          hi2c->ErrorCode |= HAL_I2C_ERROR_TIMEOUT;
 8001d92:	2220      	movs	r2, #32
 8001d94:	6c63      	ldr	r3, [r4, #68]	; 0x44
 8001d96:	4313      	orrs	r3, r2
 8001d98:	6463      	str	r3, [r4, #68]	; 0x44
          hi2c->State = HAL_I2C_STATE_READY;
 8001d9a:	0023      	movs	r3, r4
 8001d9c:	3341      	adds	r3, #65	; 0x41
 8001d9e:	701a      	strb	r2, [r3, #0]
          hi2c->Mode = HAL_I2C_MODE_NONE;
 8001da0:	0022      	movs	r2, r4
 8001da2:	2300      	movs	r3, #0
 8001da4:	3242      	adds	r2, #66	; 0x42
          __HAL_UNLOCK(hi2c);
 8001da6:	3440      	adds	r4, #64	; 0x40
          hi2c->Mode = HAL_I2C_MODE_NONE;
 8001da8:	7013      	strb	r3, [r2, #0]
          __HAL_UNLOCK(hi2c);
 8001daa:	7023      	strb	r3, [r4, #0]
      return HAL_ERROR;
 8001dac:	2001      	movs	r0, #1
 8001dae:	e7e1      	b.n	8001d74 <I2C_WaitOnSTOPFlagUntilTimeout+0x14>

08001db0 <I2C_WaitOnFlagUntilTimeout>:
{
 8001db0:	b5f8      	push	{r3, r4, r5, r6, r7, lr}
 8001db2:	0004      	movs	r4, r0
 8001db4:	000e      	movs	r6, r1
 8001db6:	0017      	movs	r7, r2
 8001db8:	001d      	movs	r5, r3
  while (__HAL_I2C_GET_FLAG(hi2c, Flag) == Status)
 8001dba:	6822      	ldr	r2, [r4, #0]
 8001dbc:	6993      	ldr	r3, [r2, #24]
 8001dbe:	4033      	ands	r3, r6
 8001dc0:	1b9b      	subs	r3, r3, r6
 8001dc2:	4259      	negs	r1, r3
 8001dc4:	414b      	adcs	r3, r1
 8001dc6:	42bb      	cmp	r3, r7
 8001dc8:	d001      	beq.n	8001dce <I2C_WaitOnFlagUntilTimeout+0x1e>
  return HAL_OK;
 8001dca:	2000      	movs	r0, #0
 8001dcc:	e017      	b.n	8001dfe <I2C_WaitOnFlagUntilTimeout+0x4e>
    if (Timeout != HAL_MAX_DELAY)
 8001dce:	1c6b      	adds	r3, r5, #1
 8001dd0:	d0f4      	beq.n	8001dbc <I2C_WaitOnFlagUntilTimeout+0xc>
      if (((HAL_GetTick() - Tickstart) > Timeout) || (Timeout == 0U))
 8001dd2:	f7ff fd6b 	bl	80018ac <HAL_GetTick>
 8001dd6:	9b06      	ldr	r3, [sp, #24]
 8001dd8:	1ac0      	subs	r0, r0, r3
 8001dda:	42a8      	cmp	r0, r5
 8001ddc:	d801      	bhi.n	8001de2 <I2C_WaitOnFlagUntilTimeout+0x32>
 8001dde:	2d00      	cmp	r5, #0
 8001de0:	d1eb      	bne.n	8001dba <I2C_WaitOnFlagUntilTimeout+0xa>
          hi2c->ErrorCode |= HAL_I2C_ERROR_TIMEOUT;
 8001de2:	2220      	movs	r2, #32
 8001de4:	6c63      	ldr	r3, [r4, #68]	; 0x44
          __HAL_UNLOCK(hi2c);
 8001de6:	2001      	movs	r0, #1
          hi2c->ErrorCode |= HAL_I2C_ERROR_TIMEOUT;
 8001de8:	4313      	orrs	r3, r2
 8001dea:	6463      	str	r3, [r4, #68]	; 0x44
          hi2c->State = HAL_I2C_STATE_READY;
 8001dec:	0023      	movs	r3, r4
 8001dee:	3341      	adds	r3, #65	; 0x41
 8001df0:	701a      	strb	r2, [r3, #0]
          hi2c->Mode = HAL_I2C_MODE_NONE;
 8001df2:	0022      	movs	r2, r4
 8001df4:	2300      	movs	r3, #0
 8001df6:	3242      	adds	r2, #66	; 0x42
          __HAL_UNLOCK(hi2c);
 8001df8:	3440      	adds	r4, #64	; 0x40
          hi2c->Mode = HAL_I2C_MODE_NONE;
 8001dfa:	7013      	strb	r3, [r2, #0]
          __HAL_UNLOCK(hi2c);
 8001dfc:	7023      	strb	r3, [r4, #0]
}
 8001dfe:	bdf8      	pop	{r3, r4, r5, r6, r7, pc}

08001e00 <I2C_WaitOnTXISFlagUntilTimeout>:
{
 8001e00:	b5f8      	push	{r3, r4, r5, r6, r7, lr}
 8001e02:	0004      	movs	r4, r0
 8001e04:	000d      	movs	r5, r1
 8001e06:	0016      	movs	r6, r2
  while (__HAL_I2C_GET_FLAG(hi2c, I2C_FLAG_TXIS) == RESET)
 8001e08:	2702      	movs	r7, #2
 8001e0a:	6823      	ldr	r3, [r4, #0]
 8001e0c:	699b      	ldr	r3, [r3, #24]
 8001e0e:	423b      	tst	r3, r7
 8001e10:	d001      	beq.n	8001e16 <I2C_WaitOnTXISFlagUntilTimeout+0x16>
  return HAL_OK;
 8001e12:	2000      	movs	r0, #0
}
 8001e14:	bdf8      	pop	{r3, r4, r5, r6, r7, pc}
    if (I2C_IsAcknowledgeFailed(hi2c, Timeout, Tickstart) != HAL_OK)
 8001e16:	0032      	movs	r2, r6
 8001e18:	0029      	movs	r1, r5
 8001e1a:	0020      	movs	r0, r4
 8001e1c:	f7ff ff62 	bl	8001ce4 <I2C_IsAcknowledgeFailed>
 8001e20:	2800      	cmp	r0, #0
 8001e22:	d115      	bne.n	8001e50 <I2C_WaitOnTXISFlagUntilTimeout+0x50>
    if (Timeout != HAL_MAX_DELAY)
 8001e24:	1c6b      	adds	r3, r5, #1
 8001e26:	d0f0      	beq.n	8001e0a <I2C_WaitOnTXISFlagUntilTimeout+0xa>
      if (((HAL_GetTick() - Tickstart) > Timeout) || (Timeout == 0U))
 8001e28:	f7ff fd40 	bl	80018ac <HAL_GetTick>
 8001e2c:	1b80      	subs	r0, r0, r6
 8001e2e:	42a8      	cmp	r0, r5
 8001e30:	d801      	bhi.n	8001e36 <I2C_WaitOnTXISFlagUntilTimeout+0x36>
 8001e32:	2d00      	cmp	r5, #0
 8001e34:	d1e9      	bne.n	8001e0a <I2C_WaitOnTXISFlagUntilTimeout+0xa>
          hi2c->ErrorCode |= HAL_I2C_ERROR_TIMEOUT;
 8001e36:	2220      	movs	r2, #32
 8001e38:	6c63      	ldr	r3, [r4, #68]	; 0x44
 8001e3a:	4313      	orrs	r3, r2
 8001e3c:	6463      	str	r3, [r4, #68]	; 0x44
          hi2c->State = HAL_I2C_STATE_READY;
 8001e3e:	0023      	movs	r3, r4
 8001e40:	3341      	adds	r3, #65	; 0x41
 8001e42:	701a      	strb	r2, [r3, #0]
          hi2c->Mode = HAL_I2C_MODE_NONE;
 8001e44:	0022      	movs	r2, r4
 8001e46:	2300      	movs	r3, #0
 8001e48:	3242      	adds	r2, #66	; 0x42
          __HAL_UNLOCK(hi2c);
 8001e4a:	3440      	adds	r4, #64	; 0x40
          hi2c->Mode = HAL_I2C_MODE_NONE;
 8001e4c:	7013      	strb	r3, [r2, #0]
          __HAL_UNLOCK(hi2c);
 8001e4e:	7023      	strb	r3, [r4, #0]
      return HAL_ERROR;
 8001e50:	2001      	movs	r0, #1
 8001e52:	e7df      	b.n	8001e14 <I2C_WaitOnTXISFlagUntilTimeout+0x14>

08001e54 <HAL_I2C_Init>:
{
 8001e54:	b570      	push	{r4, r5, r6, lr}
 8001e56:	0004      	movs	r4, r0
    return HAL_ERROR;
 8001e58:	2001      	movs	r0, #1
  if (hi2c == NULL)
 8001e5a:	2c00      	cmp	r4, #0
 8001e5c:	d03f      	beq.n	8001ede <HAL_I2C_Init+0x8a>
  if (hi2c->State == HAL_I2C_STATE_RESET)
 8001e5e:	0025      	movs	r5, r4
 8001e60:	3541      	adds	r5, #65	; 0x41
 8001e62:	782b      	ldrb	r3, [r5, #0]
 8001e64:	b2da      	uxtb	r2, r3
 8001e66:	2b00      	cmp	r3, #0
 8001e68:	d105      	bne.n	8001e76 <HAL_I2C_Init+0x22>
    hi2c->Lock = HAL_UNLOCKED;
 8001e6a:	0023      	movs	r3, r4
 8001e6c:	3340      	adds	r3, #64	; 0x40
    HAL_I2C_MspInit(hi2c);
 8001e6e:	0020      	movs	r0, r4
    hi2c->Lock = HAL_UNLOCKED;
 8001e70:	701a      	strb	r2, [r3, #0]
    HAL_I2C_MspInit(hi2c);
 8001e72:	f7ff fba9 	bl	80015c8 <HAL_I2C_MspInit>
  hi2c->State = HAL_I2C_STATE_BUSY;
 8001e76:	2324      	movs	r3, #36	; 0x24
  __HAL_I2C_DISABLE(hi2c);
 8001e78:	2101      	movs	r1, #1
  hi2c->State = HAL_I2C_STATE_BUSY;
 8001e7a:	702b      	strb	r3, [r5, #0]
  __HAL_I2C_DISABLE(hi2c);
 8001e7c:	6823      	ldr	r3, [r4, #0]
  if (hi2c->Init.AddressingMode == I2C_ADDRESSINGMODE_7BIT)
 8001e7e:	68e0      	ldr	r0, [r4, #12]
  __HAL_I2C_DISABLE(hi2c);
 8001e80:	681a      	ldr	r2, [r3, #0]
 8001e82:	68a6      	ldr	r6, [r4, #8]
 8001e84:	438a      	bics	r2, r1
 8001e86:	601a      	str	r2, [r3, #0]
  hi2c->Instance->TIMINGR = hi2c->Init.Timing & TIMING_CLEAR_MASK;
 8001e88:	6861      	ldr	r1, [r4, #4]
 8001e8a:	4a1a      	ldr	r2, [pc, #104]	; (8001ef4 <HAL_I2C_Init+0xa0>)
 8001e8c:	400a      	ands	r2, r1
 8001e8e:	611a      	str	r2, [r3, #16]
  hi2c->Instance->OAR1 &= ~I2C_OAR1_OA1EN;
 8001e90:	6899      	ldr	r1, [r3, #8]
 8001e92:	4a19      	ldr	r2, [pc, #100]	; (8001ef8 <HAL_I2C_Init+0xa4>)
 8001e94:	4011      	ands	r1, r2
 8001e96:	6099      	str	r1, [r3, #8]
  if (hi2c->Init.AddressingMode == I2C_ADDRESSINGMODE_7BIT)
 8001e98:	2801      	cmp	r0, #1
 8001e9a:	d121      	bne.n	8001ee0 <HAL_I2C_Init+0x8c>
    hi2c->Instance->OAR1 = (I2C_OAR1_OA1EN | hi2c->Init.OwnAddress1);
 8001e9c:	2180      	movs	r1, #128	; 0x80
 8001e9e:	0209      	lsls	r1, r1, #8
 8001ea0:	4331      	orrs	r1, r6
 8001ea2:	6099      	str	r1, [r3, #8]
  hi2c->Instance->CR2 |= (I2C_CR2_AUTOEND | I2C_CR2_NACK);
 8001ea4:	6858      	ldr	r0, [r3, #4]
 8001ea6:	4915      	ldr	r1, [pc, #84]	; (8001efc <HAL_I2C_Init+0xa8>)
 8001ea8:	4301      	orrs	r1, r0
 8001eaa:	6059      	str	r1, [r3, #4]
  hi2c->Instance->OAR2 &= ~I2C_DUALADDRESS_ENABLE;
 8001eac:	68d9      	ldr	r1, [r3, #12]
  hi2c->ErrorCode = HAL_I2C_ERROR_NONE;
 8001eae:	2000      	movs	r0, #0
  hi2c->Instance->OAR2 &= ~I2C_DUALADDRESS_ENABLE;
 8001eb0:	400a      	ands	r2, r1
 8001eb2:	60da      	str	r2, [r3, #12]
  hi2c->Instance->OAR2 = (hi2c->Init.DualAddressMode | hi2c->Init.OwnAddress2 | (hi2c->Init.OwnAddress2Masks << 8));
 8001eb4:	6961      	ldr	r1, [r4, #20]
 8001eb6:	6922      	ldr	r2, [r4, #16]
 8001eb8:	430a      	orrs	r2, r1
 8001eba:	69a1      	ldr	r1, [r4, #24]
 8001ebc:	0209      	lsls	r1, r1, #8
 8001ebe:	430a      	orrs	r2, r1
 8001ec0:	60da      	str	r2, [r3, #12]
  hi2c->Instance->CR1 = (hi2c->Init.GeneralCallMode | hi2c->Init.NoStretchMode);
 8001ec2:	6a21      	ldr	r1, [r4, #32]
 8001ec4:	69e2      	ldr	r2, [r4, #28]
 8001ec6:	430a      	orrs	r2, r1
 8001ec8:	601a      	str	r2, [r3, #0]
  __HAL_I2C_ENABLE(hi2c);
 8001eca:	2201      	movs	r2, #1
 8001ecc:	6819      	ldr	r1, [r3, #0]
 8001ece:	430a      	orrs	r2, r1
 8001ed0:	601a      	str	r2, [r3, #0]
  hi2c->State = HAL_I2C_STATE_READY;
 8001ed2:	2320      	movs	r3, #32
  hi2c->ErrorCode = HAL_I2C_ERROR_NONE;
 8001ed4:	6460      	str	r0, [r4, #68]	; 0x44
  hi2c->State = HAL_I2C_STATE_READY;
 8001ed6:	702b      	strb	r3, [r5, #0]
  hi2c->PreviousState = I2C_STATE_NONE;
 8001ed8:	6320      	str	r0, [r4, #48]	; 0x30
  hi2c->Mode = HAL_I2C_MODE_NONE;
 8001eda:	3442      	adds	r4, #66	; 0x42
 8001edc:	7020      	strb	r0, [r4, #0]
}
 8001ede:	bd70      	pop	{r4, r5, r6, pc}
    hi2c->Instance->OAR1 = (I2C_OAR1_OA1EN | I2C_OAR1_OA1MODE | hi2c->Init.OwnAddress1);
 8001ee0:	2184      	movs	r1, #132	; 0x84
 8001ee2:	0209      	lsls	r1, r1, #8
 8001ee4:	4331      	orrs	r1, r6
 8001ee6:	6099      	str	r1, [r3, #8]
  if (hi2c->Init.AddressingMode == I2C_ADDRESSINGMODE_10BIT)
 8001ee8:	2802      	cmp	r0, #2
 8001eea:	d1db      	bne.n	8001ea4 <HAL_I2C_Init+0x50>
    hi2c->Instance->CR2 = (I2C_CR2_ADD10);
 8001eec:	2180      	movs	r1, #128	; 0x80
 8001eee:	0109      	lsls	r1, r1, #4
 8001ef0:	6059      	str	r1, [r3, #4]
 8001ef2:	e7d7      	b.n	8001ea4 <HAL_I2C_Init+0x50>
 8001ef4:	f0ffffff 	.word	0xf0ffffff
 8001ef8:	ffff7fff 	.word	0xffff7fff
 8001efc:	02008000 	.word	0x02008000

08001f00 <HAL_I2C_Master_Transmit>:
{
 8001f00:	b5f0      	push	{r4, r5, r6, r7, lr}
 8001f02:	b087      	sub	sp, #28
 8001f04:	9305      	str	r3, [sp, #20]
  if (hi2c->State == HAL_I2C_STATE_READY)
 8001f06:	0003      	movs	r3, r0
 8001f08:	3341      	adds	r3, #65	; 0x41
{
 8001f0a:	9204      	str	r2, [sp, #16]
  if (hi2c->State == HAL_I2C_STATE_READY)
 8001f0c:	9303      	str	r3, [sp, #12]
 8001f0e:	781b      	ldrb	r3, [r3, #0]
{
 8001f10:	0004      	movs	r4, r0
 8001f12:	000f      	movs	r7, r1
    return HAL_BUSY;
 8001f14:	2002      	movs	r0, #2
  if (hi2c->State == HAL_I2C_STATE_READY)
 8001f16:	2b20      	cmp	r3, #32
 8001f18:	d114      	bne.n	8001f44 <HAL_I2C_Master_Transmit+0x44>
    __HAL_LOCK(hi2c);
 8001f1a:	0023      	movs	r3, r4
 8001f1c:	3340      	adds	r3, #64	; 0x40
 8001f1e:	781a      	ldrb	r2, [r3, #0]
 8001f20:	2a01      	cmp	r2, #1
 8001f22:	d00f      	beq.n	8001f44 <HAL_I2C_Master_Transmit+0x44>
 8001f24:	2601      	movs	r6, #1
 8001f26:	701e      	strb	r6, [r3, #0]
    tickstart = HAL_GetTick();
 8001f28:	f7ff fcc0 	bl	80018ac <HAL_GetTick>
    if (I2C_WaitOnFlagUntilTimeout(hi2c, I2C_FLAG_BUSY, SET, I2C_TIMEOUT_BUSY, tickstart) != HAL_OK)
 8001f2c:	2180      	movs	r1, #128	; 0x80
    tickstart = HAL_GetTick();
 8001f2e:	0005      	movs	r5, r0
    if (I2C_WaitOnFlagUntilTimeout(hi2c, I2C_FLAG_BUSY, SET, I2C_TIMEOUT_BUSY, tickstart) != HAL_OK)
 8001f30:	9000      	str	r0, [sp, #0]
 8001f32:	2319      	movs	r3, #25
 8001f34:	0032      	movs	r2, r6
 8001f36:	0020      	movs	r0, r4
 8001f38:	0209      	lsls	r1, r1, #8
 8001f3a:	f7ff ff39 	bl	8001db0 <I2C_WaitOnFlagUntilTimeout>
 8001f3e:	2800      	cmp	r0, #0
 8001f40:	d002      	beq.n	8001f48 <HAL_I2C_Master_Transmit+0x48>
      return HAL_ERROR;
 8001f42:	2001      	movs	r0, #1
}
 8001f44:	b007      	add	sp, #28
 8001f46:	bdf0      	pop	{r4, r5, r6, r7, pc}
    hi2c->State     = HAL_I2C_STATE_BUSY_TX;
 8001f48:	2321      	movs	r3, #33	; 0x21
    hi2c->Mode      = HAL_I2C_MODE_MASTER;
 8001f4a:	0026      	movs	r6, r4
    hi2c->State     = HAL_I2C_STATE_BUSY_TX;
 8001f4c:	9a03      	ldr	r2, [sp, #12]
    hi2c->Mode      = HAL_I2C_MODE_MASTER;
 8001f4e:	3642      	adds	r6, #66	; 0x42
    hi2c->State     = HAL_I2C_STATE_BUSY_TX;
 8001f50:	7013      	strb	r3, [r2, #0]
    hi2c->Mode      = HAL_I2C_MODE_MASTER;
 8001f52:	3b11      	subs	r3, #17
 8001f54:	7033      	strb	r3, [r6, #0]
    hi2c->pBuffPtr  = pData;
 8001f56:	9b04      	ldr	r3, [sp, #16]
    hi2c->ErrorCode = HAL_I2C_ERROR_NONE;
 8001f58:	6460      	str	r0, [r4, #68]	; 0x44
    hi2c->pBuffPtr  = pData;
 8001f5a:	6263      	str	r3, [r4, #36]	; 0x24
    hi2c->XferCount = Size;
 8001f5c:	9b05      	ldr	r3, [sp, #20]
    hi2c->XferISR   = NULL;
 8001f5e:	6360      	str	r0, [r4, #52]	; 0x34
    hi2c->XferCount = Size;
 8001f60:	8563      	strh	r3, [r4, #42]	; 0x2a
    if (hi2c->XferCount > MAX_NBYTE_SIZE)
 8001f62:	8d62      	ldrh	r2, [r4, #42]	; 0x2a
 8001f64:	4b2d      	ldr	r3, [pc, #180]	; (800201c <HAL_I2C_Master_Transmit+0x11c>)
 8001f66:	2aff      	cmp	r2, #255	; 0xff
 8001f68:	d920      	bls.n	8001fac <HAL_I2C_Master_Transmit+0xac>
      hi2c->XferSize = MAX_NBYTE_SIZE;
 8001f6a:	22ff      	movs	r2, #255	; 0xff
 8001f6c:	8522      	strh	r2, [r4, #40]	; 0x28
      I2C_TransferConfig(hi2c, DevAddress, (uint8_t)hi2c->XferSize, I2C_RELOAD_MODE, I2C_GENERATE_START_WRITE);
 8001f6e:	9300      	str	r3, [sp, #0]
 8001f70:	2380      	movs	r3, #128	; 0x80
 8001f72:	045b      	lsls	r3, r3, #17
          I2C_TransferConfig(hi2c, DevAddress, (uint8_t)hi2c->XferSize, I2C_AUTOEND_MODE, I2C_NO_STARTSTOP);
 8001f74:	0039      	movs	r1, r7
 8001f76:	0020      	movs	r0, r4
 8001f78:	f7ff fea0 	bl	8001cbc <I2C_TransferConfig>
    while (hi2c->XferCount > 0U)
 8001f7c:	8d63      	ldrh	r3, [r4, #42]	; 0x2a
      if (I2C_WaitOnTXISFlagUntilTimeout(hi2c, Timeout, tickstart) != HAL_OK)
 8001f7e:	002a      	movs	r2, r5
 8001f80:	0020      	movs	r0, r4
 8001f82:	990c      	ldr	r1, [sp, #48]	; 0x30
    while (hi2c->XferCount > 0U)
 8001f84:	2b00      	cmp	r3, #0
 8001f86:	d119      	bne.n	8001fbc <HAL_I2C_Master_Transmit+0xbc>
    if (I2C_WaitOnSTOPFlagUntilTimeout(hi2c, Timeout, tickstart) != HAL_OK)
 8001f88:	f7ff feea 	bl	8001d60 <I2C_WaitOnSTOPFlagUntilTimeout>
 8001f8c:	2800      	cmp	r0, #0
 8001f8e:	d1d8      	bne.n	8001f42 <HAL_I2C_Master_Transmit+0x42>
    __HAL_I2C_CLEAR_FLAG(hi2c, I2C_FLAG_STOPF);
 8001f90:	2120      	movs	r1, #32
 8001f92:	6823      	ldr	r3, [r4, #0]
    I2C_RESET_CR2(hi2c);
 8001f94:	4d22      	ldr	r5, [pc, #136]	; (8002020 <HAL_I2C_Master_Transmit+0x120>)
    __HAL_I2C_CLEAR_FLAG(hi2c, I2C_FLAG_STOPF);
 8001f96:	61d9      	str	r1, [r3, #28]
    I2C_RESET_CR2(hi2c);
 8001f98:	685a      	ldr	r2, [r3, #4]
 8001f9a:	402a      	ands	r2, r5
 8001f9c:	605a      	str	r2, [r3, #4]
    hi2c->State = HAL_I2C_STATE_READY;
 8001f9e:	0023      	movs	r3, r4
    __HAL_UNLOCK(hi2c);
 8001fa0:	3440      	adds	r4, #64	; 0x40
    hi2c->State = HAL_I2C_STATE_READY;
 8001fa2:	3341      	adds	r3, #65	; 0x41
 8001fa4:	7019      	strb	r1, [r3, #0]
    hi2c->Mode  = HAL_I2C_MODE_NONE;
 8001fa6:	7030      	strb	r0, [r6, #0]
    __HAL_UNLOCK(hi2c);
 8001fa8:	7020      	strb	r0, [r4, #0]
    return HAL_OK;
 8001faa:	e7cb      	b.n	8001f44 <HAL_I2C_Master_Transmit+0x44>
      hi2c->XferSize = hi2c->XferCount;
 8001fac:	8d62      	ldrh	r2, [r4, #42]	; 0x2a
 8001fae:	b292      	uxth	r2, r2
 8001fb0:	8522      	strh	r2, [r4, #40]	; 0x28
      I2C_TransferConfig(hi2c, DevAddress, (uint8_t)hi2c->XferSize, I2C_AUTOEND_MODE, I2C_GENERATE_START_WRITE);
 8001fb2:	b2d2      	uxtb	r2, r2
 8001fb4:	9300      	str	r3, [sp, #0]
          I2C_TransferConfig(hi2c, DevAddress, (uint8_t)hi2c->XferSize, I2C_AUTOEND_MODE, I2C_NO_STARTSTOP);
 8001fb6:	2380      	movs	r3, #128	; 0x80
 8001fb8:	049b      	lsls	r3, r3, #18
 8001fba:	e7db      	b.n	8001f74 <HAL_I2C_Master_Transmit+0x74>
      if (I2C_WaitOnTXISFlagUntilTimeout(hi2c, Timeout, tickstart) != HAL_OK)
 8001fbc:	f7ff ff20 	bl	8001e00 <I2C_WaitOnTXISFlagUntilTimeout>
 8001fc0:	2800      	cmp	r0, #0
 8001fc2:	d1be      	bne.n	8001f42 <HAL_I2C_Master_Transmit+0x42>
      hi2c->Instance->TXDR = *hi2c->pBuffPtr;
 8001fc4:	6a63      	ldr	r3, [r4, #36]	; 0x24
 8001fc6:	6822      	ldr	r2, [r4, #0]
 8001fc8:	7819      	ldrb	r1, [r3, #0]
      hi2c->pBuffPtr++;
 8001fca:	3301      	adds	r3, #1
      hi2c->Instance->TXDR = *hi2c->pBuffPtr;
 8001fcc:	6291      	str	r1, [r2, #40]	; 0x28
      hi2c->pBuffPtr++;
 8001fce:	6263      	str	r3, [r4, #36]	; 0x24
      hi2c->XferCount--;
 8001fd0:	8d63      	ldrh	r3, [r4, #42]	; 0x2a
      hi2c->XferSize--;
 8001fd2:	8d22      	ldrh	r2, [r4, #40]	; 0x28
      hi2c->XferCount--;
 8001fd4:	3b01      	subs	r3, #1
 8001fd6:	b29b      	uxth	r3, r3
 8001fd8:	8563      	strh	r3, [r4, #42]	; 0x2a
      hi2c->XferSize--;
 8001fda:	3a01      	subs	r2, #1
      if ((hi2c->XferCount != 0U) && (hi2c->XferSize == 0U))
 8001fdc:	8d63      	ldrh	r3, [r4, #42]	; 0x2a
      hi2c->XferSize--;
 8001fde:	b292      	uxth	r2, r2
 8001fe0:	8522      	strh	r2, [r4, #40]	; 0x28
      if ((hi2c->XferCount != 0U) && (hi2c->XferSize == 0U))
 8001fe2:	2b00      	cmp	r3, #0
 8001fe4:	d0ca      	beq.n	8001f7c <HAL_I2C_Master_Transmit+0x7c>
 8001fe6:	2a00      	cmp	r2, #0
 8001fe8:	d1c8      	bne.n	8001f7c <HAL_I2C_Master_Transmit+0x7c>
        if (I2C_WaitOnFlagUntilTimeout(hi2c, I2C_FLAG_TCR, RESET, Timeout, tickstart) != HAL_OK)
 8001fea:	2180      	movs	r1, #128	; 0x80
 8001fec:	0020      	movs	r0, r4
 8001fee:	9b0c      	ldr	r3, [sp, #48]	; 0x30
 8001ff0:	9500      	str	r5, [sp, #0]
 8001ff2:	f7ff fedd 	bl	8001db0 <I2C_WaitOnFlagUntilTimeout>
 8001ff6:	2800      	cmp	r0, #0
 8001ff8:	d1a3      	bne.n	8001f42 <HAL_I2C_Master_Transmit+0x42>
        if (hi2c->XferCount > MAX_NBYTE_SIZE)
 8001ffa:	8d63      	ldrh	r3, [r4, #42]	; 0x2a
 8001ffc:	2bff      	cmp	r3, #255	; 0xff
 8001ffe:	d906      	bls.n	800200e <HAL_I2C_Master_Transmit+0x10e>
          hi2c->XferSize = MAX_NBYTE_SIZE;
 8002000:	23ff      	movs	r3, #255	; 0xff
 8002002:	8523      	strh	r3, [r4, #40]	; 0x28
          I2C_TransferConfig(hi2c, DevAddress, (uint8_t)hi2c->XferSize, I2C_RELOAD_MODE, I2C_NO_STARTSTOP);
 8002004:	2380      	movs	r3, #128	; 0x80
 8002006:	22ff      	movs	r2, #255	; 0xff
 8002008:	9000      	str	r0, [sp, #0]
 800200a:	045b      	lsls	r3, r3, #17
 800200c:	e7b2      	b.n	8001f74 <HAL_I2C_Master_Transmit+0x74>
          hi2c->XferSize = hi2c->XferCount;
 800200e:	8d62      	ldrh	r2, [r4, #42]	; 0x2a
 8002010:	b292      	uxth	r2, r2
 8002012:	8522      	strh	r2, [r4, #40]	; 0x28
          I2C_TransferConfig(hi2c, DevAddress, (uint8_t)hi2c->XferSize, I2C_AUTOEND_MODE, I2C_NO_STARTSTOP);
 8002014:	b2d2      	uxtb	r2, r2
 8002016:	9000      	str	r0, [sp, #0]
 8002018:	e7cd      	b.n	8001fb6 <HAL_I2C_Master_Transmit+0xb6>
 800201a:	46c0      	nop			; (mov r8, r8)
 800201c:	80002000 	.word	0x80002000
 8002020:	fe00e800 	.word	0xfe00e800

08002024 <HAL_I2C_IsDeviceReady>:
{
 8002024:	b5f0      	push	{r4, r5, r6, r7, lr}
 8002026:	b089      	sub	sp, #36	; 0x24
 8002028:	9205      	str	r2, [sp, #20]
 800202a:	001e      	movs	r6, r3
  if (hi2c->State == HAL_I2C_STATE_READY)
 800202c:	0002      	movs	r2, r0
  __IO uint32_t I2C_Trials = 0UL;
 800202e:	2300      	movs	r3, #0
  if (hi2c->State == HAL_I2C_STATE_READY)
 8002030:	3241      	adds	r2, #65	; 0x41
  __IO uint32_t I2C_Trials = 0UL;
 8002032:	9307      	str	r3, [sp, #28]
  if (hi2c->State == HAL_I2C_STATE_READY)
 8002034:	7813      	ldrb	r3, [r2, #0]
{
 8002036:	0004      	movs	r4, r0
    return HAL_BUSY;
 8002038:	2502      	movs	r5, #2
  if (hi2c->State == HAL_I2C_STATE_READY)
 800203a:	2b20      	cmp	r3, #32
 800203c:	d15c      	bne.n	80020f8 <HAL_I2C_IsDeviceReady+0xd4>
    if (__HAL_I2C_GET_FLAG(hi2c, I2C_FLAG_BUSY) == SET)
 800203e:	6803      	ldr	r3, [r0, #0]
 8002040:	6998      	ldr	r0, [r3, #24]
 8002042:	2380      	movs	r3, #128	; 0x80
 8002044:	0007      	movs	r7, r0
 8002046:	021b      	lsls	r3, r3, #8
 8002048:	401f      	ands	r7, r3
 800204a:	4218      	tst	r0, r3
 800204c:	d154      	bne.n	80020f8 <HAL_I2C_IsDeviceReady+0xd4>
    __HAL_LOCK(hi2c);
 800204e:	0020      	movs	r0, r4
 8002050:	3040      	adds	r0, #64	; 0x40
 8002052:	7803      	ldrb	r3, [r0, #0]
 8002054:	2b01      	cmp	r3, #1
 8002056:	d04f      	beq.n	80020f8 <HAL_I2C_IsDeviceReady+0xd4>
 8002058:	2301      	movs	r3, #1
 800205a:	7003      	strb	r3, [r0, #0]
    hi2c->State = HAL_I2C_STATE_BUSY;
 800205c:	2024      	movs	r0, #36	; 0x24
 800205e:	0589      	lsls	r1, r1, #22
 8002060:	7010      	strb	r0, [r2, #0]
    hi2c->ErrorCode = HAL_I2C_ERROR_NONE;
 8002062:	0d8a      	lsrs	r2, r1, #22
 8002064:	6467      	str	r7, [r4, #68]	; 0x44
 8002066:	9204      	str	r2, [sp, #16]
      tmp1 = __HAL_I2C_GET_FLAG(hi2c, I2C_FLAG_STOPF);
 8002068:	9303      	str	r3, [sp, #12]
      hi2c->Instance->CR2 = I2C_GENERATE_START(hi2c->Init.AddressingMode, DevAddress);
 800206a:	68e3      	ldr	r3, [r4, #12]
 800206c:	2b01      	cmp	r3, #1
 800206e:	d12b      	bne.n	80020c8 <HAL_I2C_IsDeviceReady+0xa4>
 8002070:	4b3d      	ldr	r3, [pc, #244]	; (8002168 <HAL_I2C_IsDeviceReady+0x144>)
 8002072:	9a04      	ldr	r2, [sp, #16]
 8002074:	4313      	orrs	r3, r2
 8002076:	6822      	ldr	r2, [r4, #0]
 8002078:	6053      	str	r3, [r2, #4]
      tickstart = HAL_GetTick();
 800207a:	f7ff fc17 	bl	80018ac <HAL_GetTick>
 800207e:	9002      	str	r0, [sp, #8]
        tmp1 = __HAL_I2C_GET_FLAG(hi2c, I2C_FLAG_STOPF);
 8002080:	6823      	ldr	r3, [r4, #0]
 8002082:	9a03      	ldr	r2, [sp, #12]
 8002084:	699d      	ldr	r5, [r3, #24]
        tmp2 = __HAL_I2C_GET_FLAG(hi2c, I2C_FLAG_AF);
 8002086:	699b      	ldr	r3, [r3, #24]
        tmp1 = __HAL_I2C_GET_FLAG(hi2c, I2C_FLAG_STOPF);
 8002088:	096d      	lsrs	r5, r5, #5
        tmp2 = __HAL_I2C_GET_FLAG(hi2c, I2C_FLAG_AF);
 800208a:	091b      	lsrs	r3, r3, #4
        tmp1 = __HAL_I2C_GET_FLAG(hi2c, I2C_FLAG_STOPF);
 800208c:	4015      	ands	r5, r2
        tmp2 = __HAL_I2C_GET_FLAG(hi2c, I2C_FLAG_AF);
 800208e:	4013      	ands	r3, r2
      while ((tmp1 == RESET) && (tmp2 == RESET))
 8002090:	431d      	orrs	r5, r3
 8002092:	d01c      	beq.n	80020ce <HAL_I2C_IsDeviceReady+0xaa>
      if (__HAL_I2C_GET_FLAG(hi2c, I2C_FLAG_AF) == RESET)
 8002094:	6823      	ldr	r3, [r4, #0]
 8002096:	2710      	movs	r7, #16
 8002098:	699b      	ldr	r3, [r3, #24]
 800209a:	001a      	movs	r2, r3
 800209c:	403a      	ands	r2, r7
 800209e:	423b      	tst	r3, r7
 80020a0:	d12d      	bne.n	80020fe <HAL_I2C_IsDeviceReady+0xda>
        if (I2C_WaitOnFlagUntilTimeout(hi2c, I2C_FLAG_STOPF, RESET, Timeout, tickstart) != HAL_OK)
 80020a2:	9b02      	ldr	r3, [sp, #8]
 80020a4:	2120      	movs	r1, #32
 80020a6:	9300      	str	r3, [sp, #0]
 80020a8:	0020      	movs	r0, r4
 80020aa:	0033      	movs	r3, r6
 80020ac:	f7ff fe80 	bl	8001db0 <I2C_WaitOnFlagUntilTimeout>
 80020b0:	2800      	cmp	r0, #0
 80020b2:	d121      	bne.n	80020f8 <HAL_I2C_IsDeviceReady+0xd4>
        __HAL_I2C_CLEAR_FLAG(hi2c, I2C_FLAG_STOPF);
 80020b4:	2320      	movs	r3, #32
 80020b6:	6822      	ldr	r2, [r4, #0]
        return HAL_OK;
 80020b8:	0005      	movs	r5, r0
        __HAL_I2C_CLEAR_FLAG(hi2c, I2C_FLAG_STOPF);
 80020ba:	61d3      	str	r3, [r2, #28]
        hi2c->State = HAL_I2C_STATE_READY;
 80020bc:	0022      	movs	r2, r4
        __HAL_UNLOCK(hi2c);
 80020be:	3440      	adds	r4, #64	; 0x40
        hi2c->State = HAL_I2C_STATE_READY;
 80020c0:	3241      	adds	r2, #65	; 0x41
 80020c2:	7013      	strb	r3, [r2, #0]
        __HAL_UNLOCK(hi2c);
 80020c4:	7020      	strb	r0, [r4, #0]
        return HAL_OK;
 80020c6:	e017      	b.n	80020f8 <HAL_I2C_IsDeviceReady+0xd4>
      hi2c->Instance->CR2 = I2C_GENERATE_START(hi2c->Init.AddressingMode, DevAddress);
 80020c8:	23a0      	movs	r3, #160	; 0xa0
 80020ca:	019b      	lsls	r3, r3, #6
 80020cc:	e7d1      	b.n	8002072 <HAL_I2C_IsDeviceReady+0x4e>
        if (Timeout != HAL_MAX_DELAY)
 80020ce:	1c73      	adds	r3, r6, #1
 80020d0:	d0d6      	beq.n	8002080 <HAL_I2C_IsDeviceReady+0x5c>
          if (((HAL_GetTick() - tickstart) > Timeout) || (Timeout == 0U))
 80020d2:	f7ff fbeb 	bl	80018ac <HAL_GetTick>
 80020d6:	9b02      	ldr	r3, [sp, #8]
 80020d8:	1ac0      	subs	r0, r0, r3
 80020da:	42b0      	cmp	r0, r6
 80020dc:	d801      	bhi.n	80020e2 <HAL_I2C_IsDeviceReady+0xbe>
 80020de:	2e00      	cmp	r6, #0
 80020e0:	d1ce      	bne.n	8002080 <HAL_I2C_IsDeviceReady+0x5c>
            hi2c->State = HAL_I2C_STATE_READY;
 80020e2:	0022      	movs	r2, r4
 80020e4:	2320      	movs	r3, #32
 80020e6:	3241      	adds	r2, #65	; 0x41
 80020e8:	7013      	strb	r3, [r2, #0]
            hi2c->ErrorCode |= HAL_I2C_ERROR_TIMEOUT;
 80020ea:	6c62      	ldr	r2, [r4, #68]	; 0x44
            return HAL_ERROR;
 80020ec:	2501      	movs	r5, #1
            hi2c->ErrorCode |= HAL_I2C_ERROR_TIMEOUT;
 80020ee:	4313      	orrs	r3, r2
 80020f0:	6463      	str	r3, [r4, #68]	; 0x44
            __HAL_UNLOCK(hi2c);
 80020f2:	2300      	movs	r3, #0
 80020f4:	3440      	adds	r4, #64	; 0x40
 80020f6:	7023      	strb	r3, [r4, #0]
}
 80020f8:	0028      	movs	r0, r5
 80020fa:	b009      	add	sp, #36	; 0x24
 80020fc:	bdf0      	pop	{r4, r5, r6, r7, pc}
        if (I2C_WaitOnFlagUntilTimeout(hi2c, I2C_FLAG_STOPF, RESET, Timeout, tickstart) != HAL_OK)
 80020fe:	9b02      	ldr	r3, [sp, #8]
 8002100:	2200      	movs	r2, #0
 8002102:	9300      	str	r3, [sp, #0]
 8002104:	2120      	movs	r1, #32
 8002106:	0033      	movs	r3, r6
 8002108:	0020      	movs	r0, r4
 800210a:	f7ff fe51 	bl	8001db0 <I2C_WaitOnFlagUntilTimeout>
 800210e:	1e02      	subs	r2, r0, #0
 8002110:	d1f2      	bne.n	80020f8 <HAL_I2C_IsDeviceReady+0xd4>
        __HAL_I2C_CLEAR_FLAG(hi2c, I2C_FLAG_AF);
 8002112:	6823      	ldr	r3, [r4, #0]
      if (I2C_Trials == Trials)
 8002114:	9805      	ldr	r0, [sp, #20]
        __HAL_I2C_CLEAR_FLAG(hi2c, I2C_FLAG_AF);
 8002116:	61df      	str	r7, [r3, #28]
        __HAL_I2C_CLEAR_FLAG(hi2c, I2C_FLAG_STOPF);
 8002118:	2720      	movs	r7, #32
 800211a:	61df      	str	r7, [r3, #28]
      if (I2C_Trials == Trials)
 800211c:	9907      	ldr	r1, [sp, #28]
 800211e:	4281      	cmp	r1, r0
 8002120:	d10f      	bne.n	8002142 <HAL_I2C_IsDeviceReady+0x11e>
        hi2c->Instance->CR2 |= I2C_CR2_STOP;
 8002122:	2180      	movs	r1, #128	; 0x80
 8002124:	6858      	ldr	r0, [r3, #4]
 8002126:	01c9      	lsls	r1, r1, #7
 8002128:	4301      	orrs	r1, r0
 800212a:	6059      	str	r1, [r3, #4]
        if (I2C_WaitOnFlagUntilTimeout(hi2c, I2C_FLAG_STOPF, RESET, Timeout, tickstart) != HAL_OK)
 800212c:	9b02      	ldr	r3, [sp, #8]
 800212e:	0039      	movs	r1, r7
 8002130:	9300      	str	r3, [sp, #0]
 8002132:	0020      	movs	r0, r4
 8002134:	0033      	movs	r3, r6
 8002136:	f7ff fe3b 	bl	8001db0 <I2C_WaitOnFlagUntilTimeout>
 800213a:	2800      	cmp	r0, #0
 800213c:	d1dc      	bne.n	80020f8 <HAL_I2C_IsDeviceReady+0xd4>
        __HAL_I2C_CLEAR_FLAG(hi2c, I2C_FLAG_STOPF);
 800213e:	6823      	ldr	r3, [r4, #0]
 8002140:	61df      	str	r7, [r3, #28]
      I2C_Trials++;
 8002142:	9b07      	ldr	r3, [sp, #28]
    } while (I2C_Trials < Trials);
 8002144:	9a05      	ldr	r2, [sp, #20]
      I2C_Trials++;
 8002146:	3301      	adds	r3, #1
 8002148:	9307      	str	r3, [sp, #28]
    } while (I2C_Trials < Trials);
 800214a:	9b07      	ldr	r3, [sp, #28]
 800214c:	4293      	cmp	r3, r2
 800214e:	d200      	bcs.n	8002152 <HAL_I2C_IsDeviceReady+0x12e>
 8002150:	e78b      	b.n	800206a <HAL_I2C_IsDeviceReady+0x46>
    hi2c->State = HAL_I2C_STATE_READY;
 8002152:	0022      	movs	r2, r4
 8002154:	2320      	movs	r3, #32
 8002156:	3241      	adds	r2, #65	; 0x41
 8002158:	7013      	strb	r3, [r2, #0]
    hi2c->ErrorCode |= HAL_I2C_ERROR_TIMEOUT;
 800215a:	6c62      	ldr	r2, [r4, #68]	; 0x44
    __HAL_UNLOCK(hi2c);
 800215c:	3440      	adds	r4, #64	; 0x40
    hi2c->ErrorCode |= HAL_I2C_ERROR_TIMEOUT;
 800215e:	4313      	orrs	r3, r2
 8002160:	6063      	str	r3, [r4, #4]
    __HAL_UNLOCK(hi2c);
 8002162:	2300      	movs	r3, #0
 8002164:	7023      	strb	r3, [r4, #0]
    return HAL_ERROR;
 8002166:	e7c7      	b.n	80020f8 <HAL_I2C_IsDeviceReady+0xd4>
 8002168:	02002000 	.word	0x02002000

0800216c <HAL_I2CEx_ConfigAnalogFilter>:
  *                the configuration information for the specified I2Cx peripheral.
  * @param  AnalogFilter New state of the Analog filter.
  * @retval HAL status
  */
HAL_StatusTypeDef HAL_I2CEx_ConfigAnalogFilter(I2C_HandleTypeDef *hi2c, uint32_t AnalogFilter)
{
 800216c:	b5f0      	push	{r4, r5, r6, r7, lr}
  /* Check the parameters */
  assert_param(IS_I2C_ALL_INSTANCE(hi2c->Instance));
  assert_param(IS_I2C_ANALOG_FILTER(AnalogFilter));

  if (hi2c->State == HAL_I2C_STATE_READY)
 800216e:	0004      	movs	r4, r0
 8002170:	3441      	adds	r4, #65	; 0x41
 8002172:	7822      	ldrb	r2, [r4, #0]
{
 8002174:	0003      	movs	r3, r0
 8002176:	000f      	movs	r7, r1

    return HAL_OK;
  }
  else
  {
    return HAL_BUSY;
 8002178:	2002      	movs	r0, #2
  if (hi2c->State == HAL_I2C_STATE_READY)
 800217a:	b2d6      	uxtb	r6, r2
 800217c:	2a20      	cmp	r2, #32
 800217e:	d118      	bne.n	80021b2 <HAL_I2CEx_ConfigAnalogFilter+0x46>
    __HAL_LOCK(hi2c);
 8002180:	001d      	movs	r5, r3
 8002182:	3540      	adds	r5, #64	; 0x40
 8002184:	782a      	ldrb	r2, [r5, #0]
 8002186:	2a01      	cmp	r2, #1
 8002188:	d013      	beq.n	80021b2 <HAL_I2CEx_ConfigAnalogFilter+0x46>
    hi2c->State = HAL_I2C_STATE_BUSY;
 800218a:	2224      	movs	r2, #36	; 0x24
 800218c:	7022      	strb	r2, [r4, #0]
    __HAL_I2C_DISABLE(hi2c);
 800218e:	681b      	ldr	r3, [r3, #0]
 8002190:	3a23      	subs	r2, #35	; 0x23
 8002192:	6819      	ldr	r1, [r3, #0]
    hi2c->Instance->CR1 &= ~(I2C_CR1_ANFOFF);
 8002194:	4807      	ldr	r0, [pc, #28]	; (80021b4 <HAL_I2CEx_ConfigAnalogFilter+0x48>)
    __HAL_I2C_DISABLE(hi2c);
 8002196:	4391      	bics	r1, r2
 8002198:	6019      	str	r1, [r3, #0]
    hi2c->Instance->CR1 &= ~(I2C_CR1_ANFOFF);
 800219a:	6819      	ldr	r1, [r3, #0]
 800219c:	4001      	ands	r1, r0
    __HAL_UNLOCK(hi2c);
 800219e:	2000      	movs	r0, #0
    hi2c->Instance->CR1 &= ~(I2C_CR1_ANFOFF);
 80021a0:	6019      	str	r1, [r3, #0]
    hi2c->Instance->CR1 |= AnalogFilter;
 80021a2:	6819      	ldr	r1, [r3, #0]
 80021a4:	4339      	orrs	r1, r7
 80021a6:	6019      	str	r1, [r3, #0]
    __HAL_I2C_ENABLE(hi2c);
 80021a8:	6819      	ldr	r1, [r3, #0]
 80021aa:	430a      	orrs	r2, r1
 80021ac:	601a      	str	r2, [r3, #0]
    hi2c->State = HAL_I2C_STATE_READY;
 80021ae:	7026      	strb	r6, [r4, #0]
    __HAL_UNLOCK(hi2c);
 80021b0:	7028      	strb	r0, [r5, #0]
  }
}
 80021b2:	bdf0      	pop	{r4, r5, r6, r7, pc}
 80021b4:	ffffefff 	.word	0xffffefff

080021b8 <HAL_I2CEx_ConfigDigitalFilter>:

  /* Check the parameters */
  assert_param(IS_I2C_ALL_INSTANCE(hi2c->Instance));
  assert_param(IS_I2C_DIGITAL_FILTER(DigitalFilter));

  if (hi2c->State == HAL_I2C_STATE_READY)
 80021b8:	0002      	movs	r2, r0
{
 80021ba:	b5f0      	push	{r4, r5, r6, r7, lr}
  if (hi2c->State == HAL_I2C_STATE_READY)
 80021bc:	3241      	adds	r2, #65	; 0x41
 80021be:	7814      	ldrb	r4, [r2, #0]
{
 80021c0:	0003      	movs	r3, r0
  if (hi2c->State == HAL_I2C_STATE_READY)
 80021c2:	b2e5      	uxtb	r5, r4

    return HAL_OK;
  }
  else
  {
    return HAL_BUSY;
 80021c4:	2002      	movs	r0, #2
  if (hi2c->State == HAL_I2C_STATE_READY)
 80021c6:	2c20      	cmp	r4, #32
 80021c8:	d117      	bne.n	80021fa <HAL_I2CEx_ConfigDigitalFilter+0x42>
    __HAL_LOCK(hi2c);
 80021ca:	001c      	movs	r4, r3
 80021cc:	3440      	adds	r4, #64	; 0x40
 80021ce:	7826      	ldrb	r6, [r4, #0]
 80021d0:	2e01      	cmp	r6, #1
 80021d2:	d012      	beq.n	80021fa <HAL_I2CEx_ConfigDigitalFilter+0x42>
    hi2c->State = HAL_I2C_STATE_BUSY;
 80021d4:	3022      	adds	r0, #34	; 0x22
 80021d6:	7010      	strb	r0, [r2, #0]
    __HAL_I2C_DISABLE(hi2c);
 80021d8:	681b      	ldr	r3, [r3, #0]
 80021da:	3823      	subs	r0, #35	; 0x23
 80021dc:	681e      	ldr	r6, [r3, #0]
    tmpreg &= ~(I2C_CR1_DNF);
 80021de:	4f07      	ldr	r7, [pc, #28]	; (80021fc <HAL_I2CEx_ConfigDigitalFilter+0x44>)
    __HAL_I2C_DISABLE(hi2c);
 80021e0:	4386      	bics	r6, r0
 80021e2:	601e      	str	r6, [r3, #0]
    tmpreg = hi2c->Instance->CR1;
 80021e4:	681e      	ldr	r6, [r3, #0]
    tmpreg |= DigitalFilter << 8U;
 80021e6:	0209      	lsls	r1, r1, #8
    tmpreg &= ~(I2C_CR1_DNF);
 80021e8:	403e      	ands	r6, r7
    tmpreg |= DigitalFilter << 8U;
 80021ea:	4331      	orrs	r1, r6
    hi2c->Instance->CR1 = tmpreg;
 80021ec:	6019      	str	r1, [r3, #0]
    __HAL_I2C_ENABLE(hi2c);
 80021ee:	6819      	ldr	r1, [r3, #0]
 80021f0:	4308      	orrs	r0, r1
 80021f2:	6018      	str	r0, [r3, #0]
    __HAL_UNLOCK(hi2c);
 80021f4:	2000      	movs	r0, #0
    hi2c->State = HAL_I2C_STATE_READY;
 80021f6:	7015      	strb	r5, [r2, #0]
    __HAL_UNLOCK(hi2c);
 80021f8:	7020      	strb	r0, [r4, #0]
  }
}
 80021fa:	bdf0      	pop	{r4, r5, r6, r7, pc}
 80021fc:	fffff0ff 	.word	0xfffff0ff

08002200 <HAL_RCC_GetSysClockFreq>:
  uint32_t sysclockfreq;

  tmpreg = RCC->CFGR;

  /* Get SYSCLK source -------------------------------------------------------*/
  switch (tmpreg & RCC_CFGR_SWS)
 8002200:	220c      	movs	r2, #12
  tmpreg = RCC->CFGR;
 8002202:	4b1d      	ldr	r3, [pc, #116]	; (8002278 <HAL_RCC_GetSysClockFreq+0x78>)
{
 8002204:	b570      	push	{r4, r5, r6, lr}
  tmpreg = RCC->CFGR;
 8002206:	68dc      	ldr	r4, [r3, #12]
  switch (tmpreg & RCC_CFGR_SWS)
 8002208:	4022      	ands	r2, r4
 800220a:	2a08      	cmp	r2, #8
 800220c:	d031      	beq.n	8002272 <HAL_RCC_GetSysClockFreq+0x72>
 800220e:	2a0c      	cmp	r2, #12
 8002210:	d009      	beq.n	8002226 <HAL_RCC_GetSysClockFreq+0x26>
 8002212:	2a04      	cmp	r2, #4
 8002214:	d125      	bne.n	8002262 <HAL_RCC_GetSysClockFreq+0x62>
  {
    case RCC_SYSCLKSOURCE_STATUS_HSI:  /* HSI used as system clock source */
    {
      if ((RCC->CR & RCC_CR_HSIDIVF) != 0U)
 8002216:	6818      	ldr	r0, [r3, #0]
      {
        sysclockfreq =  (HSI_VALUE >> 2);
      }
      else
      {
        sysclockfreq =  HSI_VALUE;
 8002218:	4b18      	ldr	r3, [pc, #96]	; (800227c <HAL_RCC_GetSysClockFreq+0x7c>)
      if ((RCC->CR & RCC_CR_HSIDIVF) != 0U)
 800221a:	06c0      	lsls	r0, r0, #27
        sysclockfreq =  HSI_VALUE;
 800221c:	17c0      	asrs	r0, r0, #31
 800221e:	4018      	ands	r0, r3
 8002220:	4b17      	ldr	r3, [pc, #92]	; (8002280 <HAL_RCC_GetSysClockFreq+0x80>)
 8002222:	18c0      	adds	r0, r0, r3
      sysclockfreq = (32768U * (1UL << (msiclkrange + 1U)));
      break;
    }
  }
  return sysclockfreq;
}
 8002224:	bd70      	pop	{r4, r5, r6, pc}
      pllm = PLLMulTable[(uint32_t)(tmpreg & RCC_CFGR_PLLMUL) >> RCC_CFGR_PLLMUL_Pos];
 8002226:	02a2      	lsls	r2, r4, #10
 8002228:	4816      	ldr	r0, [pc, #88]	; (8002284 <HAL_RCC_GetSysClockFreq+0x84>)
 800222a:	0f12      	lsrs	r2, r2, #28
 800222c:	5c80      	ldrb	r0, [r0, r2]
      if (__HAL_RCC_GET_PLL_OSCSOURCE() != RCC_PLLSOURCE_HSI)
 800222e:	2280      	movs	r2, #128	; 0x80
      plld = ((uint32_t)(tmpreg & RCC_CFGR_PLLDIV) >> RCC_CFGR_PLLDIV_Pos) + 1U;
 8002230:	0224      	lsls	r4, r4, #8
      if (__HAL_RCC_GET_PLL_OSCSOURCE() != RCC_PLLSOURCE_HSI)
 8002232:	68d9      	ldr	r1, [r3, #12]
      plld = ((uint32_t)(tmpreg & RCC_CFGR_PLLDIV) >> RCC_CFGR_PLLDIV_Pos) + 1U;
 8002234:	0fa4      	lsrs	r4, r4, #30
      if (__HAL_RCC_GET_PLL_OSCSOURCE() != RCC_PLLSOURCE_HSI)
 8002236:	0252      	lsls	r2, r2, #9
      plld = ((uint32_t)(tmpreg & RCC_CFGR_PLLDIV) >> RCC_CFGR_PLLDIV_Pos) + 1U;
 8002238:	3401      	adds	r4, #1
      if (__HAL_RCC_GET_PLL_OSCSOURCE() != RCC_PLLSOURCE_HSI)
 800223a:	4211      	tst	r1, r2
 800223c:	d009      	beq.n	8002252 <HAL_RCC_GetSysClockFreq+0x52>
        pllvco = (uint32_t)(((uint64_t)HSE_VALUE * (uint64_t)pllm) / (uint64_t)plld);
 800223e:	4a12      	ldr	r2, [pc, #72]	; (8002288 <HAL_RCC_GetSysClockFreq+0x88>)
 8002240:	2300      	movs	r3, #0
 8002242:	2100      	movs	r1, #0
 8002244:	f7fe f90a 	bl	800045c <__aeabi_lmul>
 8002248:	0022      	movs	r2, r4
 800224a:	2300      	movs	r3, #0
 800224c:	f7fe f8e6 	bl	800041c <__aeabi_uldivmod>
 8002250:	e7e8      	b.n	8002224 <HAL_RCC_GetSysClockFreq+0x24>
        if ((RCC->CR & RCC_CR_HSIDIVF) != 0U)
 8002252:	681a      	ldr	r2, [r3, #0]
 8002254:	2310      	movs	r3, #16
 8002256:	421a      	tst	r2, r3
 8002258:	d001      	beq.n	800225e <HAL_RCC_GetSysClockFreq+0x5e>
          pllvco = (uint32_t)((((uint64_t)(HSI_VALUE >> 2)) * (uint64_t)pllm) / (uint64_t)plld);
 800225a:	4a0c      	ldr	r2, [pc, #48]	; (800228c <HAL_RCC_GetSysClockFreq+0x8c>)
 800225c:	e7f0      	b.n	8002240 <HAL_RCC_GetSysClockFreq+0x40>
         pllvco = (uint32_t)(((uint64_t)HSI_VALUE * (uint64_t)pllm) / (uint64_t)plld);
 800225e:	4a08      	ldr	r2, [pc, #32]	; (8002280 <HAL_RCC_GetSysClockFreq+0x80>)
 8002260:	e7ee      	b.n	8002240 <HAL_RCC_GetSysClockFreq+0x40>
      sysclockfreq = (32768U * (1UL << (msiclkrange + 1U)));
 8002262:	2080      	movs	r0, #128	; 0x80
      msiclkrange = (RCC->ICSCR & RCC_ICSCR_MSIRANGE ) >> RCC_ICSCR_MSIRANGE_Pos;
 8002264:	685b      	ldr	r3, [r3, #4]
      sysclockfreq = (32768U * (1UL << (msiclkrange + 1U)));
 8002266:	0200      	lsls	r0, r0, #8
      msiclkrange = (RCC->ICSCR & RCC_ICSCR_MSIRANGE ) >> RCC_ICSCR_MSIRANGE_Pos;
 8002268:	041b      	lsls	r3, r3, #16
 800226a:	0f5b      	lsrs	r3, r3, #29
      sysclockfreq = (32768U * (1UL << (msiclkrange + 1U)));
 800226c:	3301      	adds	r3, #1
 800226e:	4098      	lsls	r0, r3
  return sysclockfreq;
 8002270:	e7d8      	b.n	8002224 <HAL_RCC_GetSysClockFreq+0x24>
  switch (tmpreg & RCC_CFGR_SWS)
 8002272:	4805      	ldr	r0, [pc, #20]	; (8002288 <HAL_RCC_GetSysClockFreq+0x88>)
 8002274:	e7d6      	b.n	8002224 <HAL_RCC_GetSysClockFreq+0x24>
 8002276:	46c0      	nop			; (mov r8, r8)
 8002278:	40021000 	.word	0x40021000
 800227c:	ff48e500 	.word	0xff48e500
 8002280:	00f42400 	.word	0x00f42400
 8002284:	0800370a 	.word	0x0800370a
 8002288:	007a1200 	.word	0x007a1200
 800228c:	003d0900 	.word	0x003d0900

08002290 <HAL_RCC_OscConfig>:
{
 8002290:	b5f0      	push	{r4, r5, r6, r7, lr}
 8002292:	0005      	movs	r5, r0
 8002294:	b087      	sub	sp, #28
  if(RCC_OscInitStruct == NULL)
 8002296:	2800      	cmp	r0, #0
 8002298:	d055      	beq.n	8002346 <HAL_RCC_OscConfig+0xb6>
  sysclk_source = __HAL_RCC_GET_SYSCLK_SOURCE();
 800229a:	230c      	movs	r3, #12
 800229c:	4cb6      	ldr	r4, [pc, #728]	; (8002578 <HAL_RCC_OscConfig+0x2e8>)
  if(((RCC_OscInitStruct->OscillatorType) & RCC_OSCILLATORTYPE_HSE) == RCC_OSCILLATORTYPE_HSE)
 800229e:	6802      	ldr	r2, [r0, #0]
  sysclk_source = __HAL_RCC_GET_SYSCLK_SOURCE();
 80022a0:	68e6      	ldr	r6, [r4, #12]
  pll_config = __HAL_RCC_GET_PLL_OSCSOURCE();
 80022a2:	68e7      	ldr	r7, [r4, #12]
  sysclk_source = __HAL_RCC_GET_SYSCLK_SOURCE();
 80022a4:	401e      	ands	r6, r3
  pll_config = __HAL_RCC_GET_PLL_OSCSOURCE();
 80022a6:	2380      	movs	r3, #128	; 0x80
 80022a8:	025b      	lsls	r3, r3, #9
 80022aa:	401f      	ands	r7, r3
  if(((RCC_OscInitStruct->OscillatorType) & RCC_OSCILLATORTYPE_HSE) == RCC_OSCILLATORTYPE_HSE)
 80022ac:	07d2      	lsls	r2, r2, #31
 80022ae:	d43e      	bmi.n	800232e <HAL_RCC_OscConfig+0x9e>
  if(((RCC_OscInitStruct->OscillatorType) & RCC_OSCILLATORTYPE_HSI) == RCC_OSCILLATORTYPE_HSI)
 80022b0:	682b      	ldr	r3, [r5, #0]
 80022b2:	079b      	lsls	r3, r3, #30
 80022b4:	d500      	bpl.n	80022b8 <HAL_RCC_OscConfig+0x28>
 80022b6:	e087      	b.n	80023c8 <HAL_RCC_OscConfig+0x138>
  if(((RCC_OscInitStruct->OscillatorType) & RCC_OSCILLATORTYPE_MSI) == RCC_OSCILLATORTYPE_MSI)
 80022b8:	682b      	ldr	r3, [r5, #0]
 80022ba:	06db      	lsls	r3, r3, #27
 80022bc:	d529      	bpl.n	8002312 <HAL_RCC_OscConfig+0x82>
    if(sysclk_source == RCC_CFGR_SWS_MSI)
 80022be:	2e00      	cmp	r6, #0
 80022c0:	d000      	beq.n	80022c4 <HAL_RCC_OscConfig+0x34>
 80022c2:	e0e0      	b.n	8002486 <HAL_RCC_OscConfig+0x1f6>
      if((__HAL_RCC_GET_FLAG(RCC_FLAG_MSIRDY) != 0U) && (RCC_OscInitStruct->MSIState == RCC_MSI_OFF))
 80022c4:	6823      	ldr	r3, [r4, #0]
 80022c6:	059b      	lsls	r3, r3, #22
 80022c8:	d502      	bpl.n	80022d0 <HAL_RCC_OscConfig+0x40>
 80022ca:	69ab      	ldr	r3, [r5, #24]
 80022cc:	2b00      	cmp	r3, #0
 80022ce:	d03a      	beq.n	8002346 <HAL_RCC_OscConfig+0xb6>
        __HAL_RCC_MSI_RANGE_CONFIG(RCC_OscInitStruct->MSIClockRange);
 80022d0:	6862      	ldr	r2, [r4, #4]
 80022d2:	49aa      	ldr	r1, [pc, #680]	; (800257c <HAL_RCC_OscConfig+0x2ec>)
 80022d4:	6a2b      	ldr	r3, [r5, #32]
 80022d6:	400a      	ands	r2, r1
 80022d8:	431a      	orrs	r2, r3
 80022da:	6062      	str	r2, [r4, #4]
        __HAL_RCC_MSI_CALIBRATIONVALUE_ADJUST(RCC_OscInitStruct->MSICalibrationValue);
 80022dc:	6861      	ldr	r1, [r4, #4]
 80022de:	69ea      	ldr	r2, [r5, #28]
 80022e0:	0209      	lsls	r1, r1, #8
 80022e2:	0a09      	lsrs	r1, r1, #8
 80022e4:	0612      	lsls	r2, r2, #24
 80022e6:	430a      	orrs	r2, r1
 80022e8:	6062      	str	r2, [r4, #4]
        SystemCoreClock =  (32768U * (1UL << ((RCC_OscInitStruct->MSIClockRange >> RCC_ICSCR_MSIRANGE_Pos) + 1U)))
 80022ea:	2280      	movs	r2, #128	; 0x80
 80022ec:	0b5b      	lsrs	r3, r3, #13
 80022ee:	3301      	adds	r3, #1
 80022f0:	0212      	lsls	r2, r2, #8
 80022f2:	409a      	lsls	r2, r3
 80022f4:	0013      	movs	r3, r2
                           >> AHBPrescTable[((RCC->CFGR & RCC_CFGR_HPRE) >> RCC_CFGR_HPRE_Pos)];
 80022f6:	68e1      	ldr	r1, [r4, #12]
 80022f8:	060a      	lsls	r2, r1, #24
 80022fa:	49a1      	ldr	r1, [pc, #644]	; (8002580 <HAL_RCC_OscConfig+0x2f0>)
 80022fc:	0f12      	lsrs	r2, r2, #28
 80022fe:	5c8a      	ldrb	r2, [r1, r2]
 8002300:	40d3      	lsrs	r3, r2
        SystemCoreClock =  (32768U * (1UL << ((RCC_OscInitStruct->MSIClockRange >> RCC_ICSCR_MSIRANGE_Pos) + 1U)))
 8002302:	4aa0      	ldr	r2, [pc, #640]	; (8002584 <HAL_RCC_OscConfig+0x2f4>)
 8002304:	6013      	str	r3, [r2, #0]
        status = HAL_InitTick (uwTickPrio);
 8002306:	4ba0      	ldr	r3, [pc, #640]	; (8002588 <HAL_RCC_OscConfig+0x2f8>)
 8002308:	6818      	ldr	r0, [r3, #0]
 800230a:	f7ff fa8b 	bl	8001824 <HAL_InitTick>
        if(status != HAL_OK)
 800230e:	2800      	cmp	r0, #0
 8002310:	d130      	bne.n	8002374 <HAL_RCC_OscConfig+0xe4>
  if(((RCC_OscInitStruct->OscillatorType) & RCC_OSCILLATORTYPE_LSI) == RCC_OSCILLATORTYPE_LSI)
 8002312:	682b      	ldr	r3, [r5, #0]
 8002314:	071b      	lsls	r3, r3, #28
 8002316:	d500      	bpl.n	800231a <HAL_RCC_OscConfig+0x8a>
 8002318:	e0ec      	b.n	80024f4 <HAL_RCC_OscConfig+0x264>
  if(((RCC_OscInitStruct->OscillatorType) & RCC_OSCILLATORTYPE_LSE) == RCC_OSCILLATORTYPE_LSE)
 800231a:	682b      	ldr	r3, [r5, #0]
 800231c:	075b      	lsls	r3, r3, #29
 800231e:	d500      	bpl.n	8002322 <HAL_RCC_OscConfig+0x92>
 8002320:	e10e      	b.n	8002540 <HAL_RCC_OscConfig+0x2b0>
  if ((RCC_OscInitStruct->PLL.PLLState) != RCC_PLL_NONE)
 8002322:	6a6b      	ldr	r3, [r5, #36]	; 0x24
 8002324:	2b00      	cmp	r3, #0
 8002326:	d000      	beq.n	800232a <HAL_RCC_OscConfig+0x9a>
 8002328:	e195      	b.n	8002656 <HAL_RCC_OscConfig+0x3c6>
  return HAL_OK;
 800232a:	2000      	movs	r0, #0
 800232c:	e022      	b.n	8002374 <HAL_RCC_OscConfig+0xe4>
    if((sysclk_source == RCC_SYSCLKSOURCE_STATUS_HSE)
 800232e:	2e08      	cmp	r6, #8
 8002330:	d003      	beq.n	800233a <HAL_RCC_OscConfig+0xaa>
       || ((sysclk_source == RCC_SYSCLKSOURCE_STATUS_PLLCLK) && (pll_config == RCC_PLLSOURCE_HSE)))
 8002332:	2e0c      	cmp	r6, #12
 8002334:	d109      	bne.n	800234a <HAL_RCC_OscConfig+0xba>
 8002336:	2f00      	cmp	r7, #0
 8002338:	d007      	beq.n	800234a <HAL_RCC_OscConfig+0xba>
      if((__HAL_RCC_GET_FLAG(RCC_FLAG_HSERDY) != 0U) && (RCC_OscInitStruct->HSEState == RCC_HSE_OFF))
 800233a:	6823      	ldr	r3, [r4, #0]
 800233c:	039b      	lsls	r3, r3, #14
 800233e:	d5b7      	bpl.n	80022b0 <HAL_RCC_OscConfig+0x20>
 8002340:	686b      	ldr	r3, [r5, #4]
 8002342:	2b00      	cmp	r3, #0
 8002344:	d1b4      	bne.n	80022b0 <HAL_RCC_OscConfig+0x20>
          return HAL_ERROR;
 8002346:	2001      	movs	r0, #1
 8002348:	e014      	b.n	8002374 <HAL_RCC_OscConfig+0xe4>
      __HAL_RCC_HSE_CONFIG(RCC_OscInitStruct->HSEState);
 800234a:	686a      	ldr	r2, [r5, #4]
 800234c:	429a      	cmp	r2, r3
 800234e:	d113      	bne.n	8002378 <HAL_RCC_OscConfig+0xe8>
 8002350:	6822      	ldr	r2, [r4, #0]
 8002352:	4313      	orrs	r3, r2
 8002354:	6023      	str	r3, [r4, #0]
        tickstart = HAL_GetTick();
 8002356:	f7ff faa9 	bl	80018ac <HAL_GetTick>
 800235a:	9001      	str	r0, [sp, #4]
        while(__HAL_RCC_GET_FLAG(RCC_FLAG_HSERDY) == 0U)
 800235c:	2280      	movs	r2, #128	; 0x80
 800235e:	6823      	ldr	r3, [r4, #0]
 8002360:	0292      	lsls	r2, r2, #10
 8002362:	4213      	tst	r3, r2
 8002364:	d1a4      	bne.n	80022b0 <HAL_RCC_OscConfig+0x20>
          if((HAL_GetTick() - tickstart ) > HSE_TIMEOUT_VALUE)
 8002366:	f7ff faa1 	bl	80018ac <HAL_GetTick>
 800236a:	9b01      	ldr	r3, [sp, #4]
 800236c:	1ac0      	subs	r0, r0, r3
 800236e:	2864      	cmp	r0, #100	; 0x64
 8002370:	d9f4      	bls.n	800235c <HAL_RCC_OscConfig+0xcc>
            return HAL_TIMEOUT;
 8002372:	2003      	movs	r0, #3
}
 8002374:	b007      	add	sp, #28
 8002376:	bdf0      	pop	{r4, r5, r6, r7, pc}
      __HAL_RCC_HSE_CONFIG(RCC_OscInitStruct->HSEState);
 8002378:	21a0      	movs	r1, #160	; 0xa0
 800237a:	02c9      	lsls	r1, r1, #11
 800237c:	428a      	cmp	r2, r1
 800237e:	d105      	bne.n	800238c <HAL_RCC_OscConfig+0xfc>
 8002380:	2280      	movs	r2, #128	; 0x80
 8002382:	6821      	ldr	r1, [r4, #0]
 8002384:	02d2      	lsls	r2, r2, #11
 8002386:	430a      	orrs	r2, r1
 8002388:	6022      	str	r2, [r4, #0]
 800238a:	e7e1      	b.n	8002350 <HAL_RCC_OscConfig+0xc0>
 800238c:	6821      	ldr	r1, [r4, #0]
 800238e:	487f      	ldr	r0, [pc, #508]	; (800258c <HAL_RCC_OscConfig+0x2fc>)
 8002390:	4001      	ands	r1, r0
 8002392:	6021      	str	r1, [r4, #0]
 8002394:	6821      	ldr	r1, [r4, #0]
 8002396:	400b      	ands	r3, r1
 8002398:	9305      	str	r3, [sp, #20]
 800239a:	9b05      	ldr	r3, [sp, #20]
 800239c:	497c      	ldr	r1, [pc, #496]	; (8002590 <HAL_RCC_OscConfig+0x300>)
 800239e:	6823      	ldr	r3, [r4, #0]
 80023a0:	400b      	ands	r3, r1
 80023a2:	6023      	str	r3, [r4, #0]
      if(RCC_OscInitStruct->HSEState != RCC_HSE_OFF)
 80023a4:	2a00      	cmp	r2, #0
 80023a6:	d1d6      	bne.n	8002356 <HAL_RCC_OscConfig+0xc6>
        tickstart = HAL_GetTick();
 80023a8:	f7ff fa80 	bl	80018ac <HAL_GetTick>
 80023ac:	9001      	str	r0, [sp, #4]
        while(__HAL_RCC_GET_FLAG(RCC_FLAG_HSERDY) != 0U)
 80023ae:	2280      	movs	r2, #128	; 0x80
 80023b0:	6823      	ldr	r3, [r4, #0]
 80023b2:	0292      	lsls	r2, r2, #10
 80023b4:	4213      	tst	r3, r2
 80023b6:	d100      	bne.n	80023ba <HAL_RCC_OscConfig+0x12a>
 80023b8:	e77a      	b.n	80022b0 <HAL_RCC_OscConfig+0x20>
           if((HAL_GetTick() - tickstart ) > HSE_TIMEOUT_VALUE)
 80023ba:	f7ff fa77 	bl	80018ac <HAL_GetTick>
 80023be:	9b01      	ldr	r3, [sp, #4]
 80023c0:	1ac0      	subs	r0, r0, r3
 80023c2:	2864      	cmp	r0, #100	; 0x64
 80023c4:	d9f3      	bls.n	80023ae <HAL_RCC_OscConfig+0x11e>
 80023c6:	e7d4      	b.n	8002372 <HAL_RCC_OscConfig+0xe2>
    if((hsi_state & RCC_HSI_OUTEN) != 0U)
 80023c8:	2220      	movs	r2, #32
    hsi_state = RCC_OscInitStruct->HSIState;
 80023ca:	68eb      	ldr	r3, [r5, #12]
    if((hsi_state & RCC_HSI_OUTEN) != 0U)
 80023cc:	4213      	tst	r3, r2
 80023ce:	d003      	beq.n	80023d8 <HAL_RCC_OscConfig+0x148>
      SET_BIT(RCC->CR, RCC_CR_HSIOUTEN);
 80023d0:	6821      	ldr	r1, [r4, #0]
      hsi_state &= ~RCC_CR_HSIOUTEN;
 80023d2:	4393      	bics	r3, r2
      SET_BIT(RCC->CR, RCC_CR_HSIOUTEN);
 80023d4:	4311      	orrs	r1, r2
 80023d6:	6021      	str	r1, [r4, #0]
    if((sysclk_source == RCC_SYSCLKSOURCE_STATUS_HSI)
 80023d8:	2e04      	cmp	r6, #4
 80023da:	d003      	beq.n	80023e4 <HAL_RCC_OscConfig+0x154>
       || ((sysclk_source == RCC_SYSCLKSOURCE_STATUS_PLLCLK) && (pll_config == RCC_PLLSOURCE_HSI)))
 80023dc:	2e0c      	cmp	r6, #12
 80023de:	d124      	bne.n	800242a <HAL_RCC_OscConfig+0x19a>
 80023e0:	2f00      	cmp	r7, #0
 80023e2:	d122      	bne.n	800242a <HAL_RCC_OscConfig+0x19a>
      if((__HAL_RCC_GET_FLAG(RCC_FLAG_HSIRDY) != 0U) && (hsi_state == RCC_HSI_OFF))
 80023e4:	6822      	ldr	r2, [r4, #0]
 80023e6:	0752      	lsls	r2, r2, #29
 80023e8:	d501      	bpl.n	80023ee <HAL_RCC_OscConfig+0x15e>
 80023ea:	2b00      	cmp	r3, #0
 80023ec:	d0ab      	beq.n	8002346 <HAL_RCC_OscConfig+0xb6>
        __HAL_RCC_HSI_CALIBRATIONVALUE_ADJUST(RCC_OscInitStruct->HSICalibrationValue);
 80023ee:	6861      	ldr	r1, [r4, #4]
 80023f0:	692a      	ldr	r2, [r5, #16]
 80023f2:	4868      	ldr	r0, [pc, #416]	; (8002594 <HAL_RCC_OscConfig+0x304>)
 80023f4:	0212      	lsls	r2, r2, #8
 80023f6:	4001      	ands	r1, r0
 80023f8:	430a      	orrs	r2, r1
        __HAL_RCC_HSI_CONFIG(hsi_state);
 80023fa:	2109      	movs	r1, #9
        __HAL_RCC_HSI_CALIBRATIONVALUE_ADJUST(RCC_OscInitStruct->HSICalibrationValue);
 80023fc:	6062      	str	r2, [r4, #4]
        __HAL_RCC_HSI_CONFIG(hsi_state);
 80023fe:	6822      	ldr	r2, [r4, #0]
 8002400:	438a      	bics	r2, r1
 8002402:	4313      	orrs	r3, r2
 8002404:	6023      	str	r3, [r4, #0]
      SystemCoreClock = HAL_RCC_GetSysClockFreq() >> AHBPrescTable[(RCC->CFGR & RCC_CFGR_HPRE)>> RCC_CFGR_HPRE_Pos];
 8002406:	f7ff fefb 	bl	8002200 <HAL_RCC_GetSysClockFreq>
 800240a:	68e3      	ldr	r3, [r4, #12]
 800240c:	4a5c      	ldr	r2, [pc, #368]	; (8002580 <HAL_RCC_OscConfig+0x2f0>)
 800240e:	061b      	lsls	r3, r3, #24
 8002410:	0f1b      	lsrs	r3, r3, #28
 8002412:	5cd3      	ldrb	r3, [r2, r3]
 8002414:	40d8      	lsrs	r0, r3
 8002416:	4b5b      	ldr	r3, [pc, #364]	; (8002584 <HAL_RCC_OscConfig+0x2f4>)
 8002418:	6018      	str	r0, [r3, #0]
      status = HAL_InitTick (uwTickPrio);
 800241a:	4b5b      	ldr	r3, [pc, #364]	; (8002588 <HAL_RCC_OscConfig+0x2f8>)
 800241c:	6818      	ldr	r0, [r3, #0]
 800241e:	f7ff fa01 	bl	8001824 <HAL_InitTick>
      if(status != HAL_OK)
 8002422:	2800      	cmp	r0, #0
 8002424:	d100      	bne.n	8002428 <HAL_RCC_OscConfig+0x198>
 8002426:	e747      	b.n	80022b8 <HAL_RCC_OscConfig+0x28>
 8002428:	e7a4      	b.n	8002374 <HAL_RCC_OscConfig+0xe4>
      if(hsi_state != RCC_HSI_OFF)
 800242a:	2b00      	cmp	r3, #0
 800242c:	d019      	beq.n	8002462 <HAL_RCC_OscConfig+0x1d2>
        __HAL_RCC_HSI_CONFIG(hsi_state);
 800242e:	2109      	movs	r1, #9
 8002430:	6822      	ldr	r2, [r4, #0]
 8002432:	438a      	bics	r2, r1
 8002434:	4313      	orrs	r3, r2
 8002436:	6023      	str	r3, [r4, #0]
        tickstart = HAL_GetTick();
 8002438:	f7ff fa38 	bl	80018ac <HAL_GetTick>
 800243c:	0007      	movs	r7, r0
        while(__HAL_RCC_GET_FLAG(RCC_FLAG_HSIRDY) == 0U)
 800243e:	2204      	movs	r2, #4
 8002440:	6823      	ldr	r3, [r4, #0]
 8002442:	4213      	tst	r3, r2
 8002444:	d007      	beq.n	8002456 <HAL_RCC_OscConfig+0x1c6>
        __HAL_RCC_HSI_CALIBRATIONVALUE_ADJUST(RCC_OscInitStruct->HSICalibrationValue);
 8002446:	6862      	ldr	r2, [r4, #4]
 8002448:	692b      	ldr	r3, [r5, #16]
 800244a:	4952      	ldr	r1, [pc, #328]	; (8002594 <HAL_RCC_OscConfig+0x304>)
 800244c:	021b      	lsls	r3, r3, #8
 800244e:	400a      	ands	r2, r1
 8002450:	4313      	orrs	r3, r2
 8002452:	6063      	str	r3, [r4, #4]
 8002454:	e730      	b.n	80022b8 <HAL_RCC_OscConfig+0x28>
          if((HAL_GetTick() - tickstart ) > HSI_TIMEOUT_VALUE)
 8002456:	f7ff fa29 	bl	80018ac <HAL_GetTick>
 800245a:	1bc0      	subs	r0, r0, r7
 800245c:	2802      	cmp	r0, #2
 800245e:	d9ee      	bls.n	800243e <HAL_RCC_OscConfig+0x1ae>
 8002460:	e787      	b.n	8002372 <HAL_RCC_OscConfig+0xe2>
        __HAL_RCC_HSI_DISABLE();
 8002462:	2201      	movs	r2, #1
 8002464:	6823      	ldr	r3, [r4, #0]
 8002466:	4393      	bics	r3, r2
 8002468:	6023      	str	r3, [r4, #0]
        tickstart = HAL_GetTick();
 800246a:	f7ff fa1f 	bl	80018ac <HAL_GetTick>
 800246e:	0007      	movs	r7, r0
        while(__HAL_RCC_GET_FLAG(RCC_FLAG_HSIRDY) != 0U)
 8002470:	2204      	movs	r2, #4
 8002472:	6823      	ldr	r3, [r4, #0]
 8002474:	4213      	tst	r3, r2
 8002476:	d100      	bne.n	800247a <HAL_RCC_OscConfig+0x1ea>
 8002478:	e71e      	b.n	80022b8 <HAL_RCC_OscConfig+0x28>
          if((HAL_GetTick() - tickstart ) > HSI_TIMEOUT_VALUE)
 800247a:	f7ff fa17 	bl	80018ac <HAL_GetTick>
 800247e:	1bc0      	subs	r0, r0, r7
 8002480:	2802      	cmp	r0, #2
 8002482:	d9f5      	bls.n	8002470 <HAL_RCC_OscConfig+0x1e0>
 8002484:	e775      	b.n	8002372 <HAL_RCC_OscConfig+0xe2>
      if(RCC_OscInitStruct->MSIState != RCC_MSI_OFF)
 8002486:	69ab      	ldr	r3, [r5, #24]
 8002488:	2b00      	cmp	r3, #0
 800248a:	d020      	beq.n	80024ce <HAL_RCC_OscConfig+0x23e>
        __HAL_RCC_MSI_ENABLE();
 800248c:	2380      	movs	r3, #128	; 0x80
 800248e:	6822      	ldr	r2, [r4, #0]
 8002490:	005b      	lsls	r3, r3, #1
 8002492:	4313      	orrs	r3, r2
 8002494:	6023      	str	r3, [r4, #0]
        tickstart = HAL_GetTick();
 8002496:	f7ff fa09 	bl	80018ac <HAL_GetTick>
 800249a:	0007      	movs	r7, r0
        while(__HAL_RCC_GET_FLAG(RCC_FLAG_MSIRDY) == 0U)
 800249c:	2280      	movs	r2, #128	; 0x80
 800249e:	6823      	ldr	r3, [r4, #0]
 80024a0:	0092      	lsls	r2, r2, #2
 80024a2:	4213      	tst	r3, r2
 80024a4:	d00d      	beq.n	80024c2 <HAL_RCC_OscConfig+0x232>
        __HAL_RCC_MSI_RANGE_CONFIG(RCC_OscInitStruct->MSIClockRange);
 80024a6:	6863      	ldr	r3, [r4, #4]
 80024a8:	4a34      	ldr	r2, [pc, #208]	; (800257c <HAL_RCC_OscConfig+0x2ec>)
 80024aa:	4013      	ands	r3, r2
 80024ac:	6a2a      	ldr	r2, [r5, #32]
 80024ae:	4313      	orrs	r3, r2
 80024b0:	6063      	str	r3, [r4, #4]
        __HAL_RCC_MSI_CALIBRATIONVALUE_ADJUST(RCC_OscInitStruct->MSICalibrationValue);
 80024b2:	6862      	ldr	r2, [r4, #4]
 80024b4:	69eb      	ldr	r3, [r5, #28]
 80024b6:	0212      	lsls	r2, r2, #8
 80024b8:	061b      	lsls	r3, r3, #24
 80024ba:	0a12      	lsrs	r2, r2, #8
 80024bc:	4313      	orrs	r3, r2
 80024be:	6063      	str	r3, [r4, #4]
 80024c0:	e727      	b.n	8002312 <HAL_RCC_OscConfig+0x82>
          if((HAL_GetTick() - tickstart) > MSI_TIMEOUT_VALUE)
 80024c2:	f7ff f9f3 	bl	80018ac <HAL_GetTick>
 80024c6:	1bc0      	subs	r0, r0, r7
 80024c8:	2802      	cmp	r0, #2
 80024ca:	d9e7      	bls.n	800249c <HAL_RCC_OscConfig+0x20c>
 80024cc:	e751      	b.n	8002372 <HAL_RCC_OscConfig+0xe2>
        __HAL_RCC_MSI_DISABLE();
 80024ce:	6823      	ldr	r3, [r4, #0]
 80024d0:	4a31      	ldr	r2, [pc, #196]	; (8002598 <HAL_RCC_OscConfig+0x308>)
 80024d2:	4013      	ands	r3, r2
 80024d4:	6023      	str	r3, [r4, #0]
        tickstart = HAL_GetTick();
 80024d6:	f7ff f9e9 	bl	80018ac <HAL_GetTick>
 80024da:	0007      	movs	r7, r0
        while(__HAL_RCC_GET_FLAG(RCC_FLAG_MSIRDY) != 0U)
 80024dc:	2280      	movs	r2, #128	; 0x80
 80024de:	6823      	ldr	r3, [r4, #0]
 80024e0:	0092      	lsls	r2, r2, #2
 80024e2:	4213      	tst	r3, r2
 80024e4:	d100      	bne.n	80024e8 <HAL_RCC_OscConfig+0x258>
 80024e6:	e714      	b.n	8002312 <HAL_RCC_OscConfig+0x82>
          if((HAL_GetTick() - tickstart) > MSI_TIMEOUT_VALUE)
 80024e8:	f7ff f9e0 	bl	80018ac <HAL_GetTick>
 80024ec:	1bc0      	subs	r0, r0, r7
 80024ee:	2802      	cmp	r0, #2
 80024f0:	d9f4      	bls.n	80024dc <HAL_RCC_OscConfig+0x24c>
 80024f2:	e73e      	b.n	8002372 <HAL_RCC_OscConfig+0xe2>
    if(RCC_OscInitStruct->LSIState != RCC_LSI_OFF)
 80024f4:	696a      	ldr	r2, [r5, #20]
 80024f6:	2301      	movs	r3, #1
 80024f8:	2a00      	cmp	r2, #0
 80024fa:	d010      	beq.n	800251e <HAL_RCC_OscConfig+0x28e>
      __HAL_RCC_LSI_ENABLE();
 80024fc:	6d22      	ldr	r2, [r4, #80]	; 0x50
 80024fe:	4313      	orrs	r3, r2
 8002500:	6523      	str	r3, [r4, #80]	; 0x50
      tickstart = HAL_GetTick();
 8002502:	f7ff f9d3 	bl	80018ac <HAL_GetTick>
 8002506:	0007      	movs	r7, r0
      while(__HAL_RCC_GET_FLAG(RCC_FLAG_LSIRDY) == 0U)
 8002508:	2202      	movs	r2, #2
 800250a:	6d23      	ldr	r3, [r4, #80]	; 0x50
 800250c:	4213      	tst	r3, r2
 800250e:	d000      	beq.n	8002512 <HAL_RCC_OscConfig+0x282>
 8002510:	e703      	b.n	800231a <HAL_RCC_OscConfig+0x8a>
        if((HAL_GetTick() - tickstart ) > LSI_TIMEOUT_VALUE)
 8002512:	f7ff f9cb 	bl	80018ac <HAL_GetTick>
 8002516:	1bc0      	subs	r0, r0, r7
 8002518:	2802      	cmp	r0, #2
 800251a:	d9f5      	bls.n	8002508 <HAL_RCC_OscConfig+0x278>
 800251c:	e729      	b.n	8002372 <HAL_RCC_OscConfig+0xe2>
      __HAL_RCC_LSI_DISABLE();
 800251e:	6d22      	ldr	r2, [r4, #80]	; 0x50
 8002520:	439a      	bics	r2, r3
 8002522:	6522      	str	r2, [r4, #80]	; 0x50
      tickstart = HAL_GetTick();
 8002524:	f7ff f9c2 	bl	80018ac <HAL_GetTick>
 8002528:	0007      	movs	r7, r0
      while(__HAL_RCC_GET_FLAG(RCC_FLAG_LSIRDY) != 0U)
 800252a:	2202      	movs	r2, #2
 800252c:	6d23      	ldr	r3, [r4, #80]	; 0x50
 800252e:	4213      	tst	r3, r2
 8002530:	d100      	bne.n	8002534 <HAL_RCC_OscConfig+0x2a4>
 8002532:	e6f2      	b.n	800231a <HAL_RCC_OscConfig+0x8a>
        if((HAL_GetTick() - tickstart ) > LSI_TIMEOUT_VALUE)
 8002534:	f7ff f9ba 	bl	80018ac <HAL_GetTick>
 8002538:	1bc0      	subs	r0, r0, r7
 800253a:	2802      	cmp	r0, #2
 800253c:	d9f5      	bls.n	800252a <HAL_RCC_OscConfig+0x29a>
 800253e:	e718      	b.n	8002372 <HAL_RCC_OscConfig+0xe2>
    if(__HAL_RCC_PWR_IS_CLK_DISABLED())
 8002540:	2380      	movs	r3, #128	; 0x80
    FlagStatus       pwrclkchanged = RESET;
 8002542:	2100      	movs	r1, #0
    if(__HAL_RCC_PWR_IS_CLK_DISABLED())
 8002544:	6ba2      	ldr	r2, [r4, #56]	; 0x38
 8002546:	055b      	lsls	r3, r3, #21
    FlagStatus       pwrclkchanged = RESET;
 8002548:	9101      	str	r1, [sp, #4]
    if(__HAL_RCC_PWR_IS_CLK_DISABLED())
 800254a:	421a      	tst	r2, r3
 800254c:	d104      	bne.n	8002558 <HAL_RCC_OscConfig+0x2c8>
      __HAL_RCC_PWR_CLK_ENABLE();
 800254e:	6ba2      	ldr	r2, [r4, #56]	; 0x38
 8002550:	4313      	orrs	r3, r2
 8002552:	63a3      	str	r3, [r4, #56]	; 0x38
      pwrclkchanged = SET;
 8002554:	2301      	movs	r3, #1
 8002556:	9301      	str	r3, [sp, #4]
    if(HAL_IS_BIT_CLR(PWR->CR, PWR_CR_DBP))
 8002558:	2280      	movs	r2, #128	; 0x80
 800255a:	4f10      	ldr	r7, [pc, #64]	; (800259c <HAL_RCC_OscConfig+0x30c>)
 800255c:	0052      	lsls	r2, r2, #1
 800255e:	683b      	ldr	r3, [r7, #0]
 8002560:	4213      	tst	r3, r2
 8002562:	d01d      	beq.n	80025a0 <HAL_RCC_OscConfig+0x310>
    __HAL_RCC_LSE_CONFIG(RCC_OscInitStruct->LSEState);
 8002564:	2280      	movs	r2, #128	; 0x80
 8002566:	68ab      	ldr	r3, [r5, #8]
 8002568:	0052      	lsls	r2, r2, #1
 800256a:	4293      	cmp	r3, r2
 800256c:	d12e      	bne.n	80025cc <HAL_RCC_OscConfig+0x33c>
 800256e:	6d22      	ldr	r2, [r4, #80]	; 0x50
 8002570:	4313      	orrs	r3, r2
 8002572:	6523      	str	r3, [r4, #80]	; 0x50
 8002574:	e04f      	b.n	8002616 <HAL_RCC_OscConfig+0x386>
 8002576:	46c0      	nop			; (mov r8, r8)
 8002578:	40021000 	.word	0x40021000
 800257c:	ffff1fff 	.word	0xffff1fff
 8002580:	080036f2 	.word	0x080036f2
 8002584:	20000004 	.word	0x20000004
 8002588:	2000000c 	.word	0x2000000c
 800258c:	fffeffff 	.word	0xfffeffff
 8002590:	fffbffff 	.word	0xfffbffff
 8002594:	ffffe0ff 	.word	0xffffe0ff
 8002598:	fffffeff 	.word	0xfffffeff
 800259c:	40007000 	.word	0x40007000
      SET_BIT(PWR->CR, PWR_CR_DBP);
 80025a0:	2280      	movs	r2, #128	; 0x80
 80025a2:	683b      	ldr	r3, [r7, #0]
 80025a4:	0052      	lsls	r2, r2, #1
 80025a6:	4313      	orrs	r3, r2
 80025a8:	603b      	str	r3, [r7, #0]
      tickstart = HAL_GetTick();
 80025aa:	f7ff f97f 	bl	80018ac <HAL_GetTick>
      while(HAL_IS_BIT_CLR(PWR->CR, PWR_CR_DBP))
 80025ae:	2380      	movs	r3, #128	; 0x80
 80025b0:	005b      	lsls	r3, r3, #1
      tickstart = HAL_GetTick();
 80025b2:	9002      	str	r0, [sp, #8]
      while(HAL_IS_BIT_CLR(PWR->CR, PWR_CR_DBP))
 80025b4:	9303      	str	r3, [sp, #12]
 80025b6:	683b      	ldr	r3, [r7, #0]
 80025b8:	9a03      	ldr	r2, [sp, #12]
 80025ba:	4213      	tst	r3, r2
 80025bc:	d1d2      	bne.n	8002564 <HAL_RCC_OscConfig+0x2d4>
        if((HAL_GetTick() - tickstart) > RCC_DBP_TIMEOUT_VALUE)
 80025be:	f7ff f975 	bl	80018ac <HAL_GetTick>
 80025c2:	9b02      	ldr	r3, [sp, #8]
 80025c4:	1ac0      	subs	r0, r0, r3
 80025c6:	2864      	cmp	r0, #100	; 0x64
 80025c8:	d9f5      	bls.n	80025b6 <HAL_RCC_OscConfig+0x326>
 80025ca:	e6d2      	b.n	8002372 <HAL_RCC_OscConfig+0xe2>
    __HAL_RCC_LSE_CONFIG(RCC_OscInitStruct->LSEState);
 80025cc:	2b00      	cmp	r3, #0
 80025ce:	d116      	bne.n	80025fe <HAL_RCC_OscConfig+0x36e>
 80025d0:	6d23      	ldr	r3, [r4, #80]	; 0x50
 80025d2:	4a51      	ldr	r2, [pc, #324]	; (8002718 <HAL_RCC_OscConfig+0x488>)
 80025d4:	4013      	ands	r3, r2
 80025d6:	6523      	str	r3, [r4, #80]	; 0x50
 80025d8:	6d23      	ldr	r3, [r4, #80]	; 0x50
 80025da:	4a50      	ldr	r2, [pc, #320]	; (800271c <HAL_RCC_OscConfig+0x48c>)
 80025dc:	4013      	ands	r3, r2
 80025de:	6523      	str	r3, [r4, #80]	; 0x50
      tickstart = HAL_GetTick();
 80025e0:	f7ff f964 	bl	80018ac <HAL_GetTick>
 80025e4:	0007      	movs	r7, r0
      while(__HAL_RCC_GET_FLAG(RCC_FLAG_LSERDY) != 0U)
 80025e6:	2280      	movs	r2, #128	; 0x80
 80025e8:	6d23      	ldr	r3, [r4, #80]	; 0x50
 80025ea:	0092      	lsls	r2, r2, #2
 80025ec:	4213      	tst	r3, r2
 80025ee:	d01a      	beq.n	8002626 <HAL_RCC_OscConfig+0x396>
        if((HAL_GetTick() - tickstart ) > RCC_LSE_TIMEOUT_VALUE)
 80025f0:	f7ff f95c 	bl	80018ac <HAL_GetTick>
 80025f4:	4b4a      	ldr	r3, [pc, #296]	; (8002720 <HAL_RCC_OscConfig+0x490>)
 80025f6:	1bc0      	subs	r0, r0, r7
 80025f8:	4298      	cmp	r0, r3
 80025fa:	d9f4      	bls.n	80025e6 <HAL_RCC_OscConfig+0x356>
 80025fc:	e6b9      	b.n	8002372 <HAL_RCC_OscConfig+0xe2>
    __HAL_RCC_LSE_CONFIG(RCC_OscInitStruct->LSEState);
 80025fe:	21a0      	movs	r1, #160	; 0xa0
 8002600:	00c9      	lsls	r1, r1, #3
 8002602:	428b      	cmp	r3, r1
 8002604:	d118      	bne.n	8002638 <HAL_RCC_OscConfig+0x3a8>
 8002606:	2380      	movs	r3, #128	; 0x80
 8002608:	6d21      	ldr	r1, [r4, #80]	; 0x50
 800260a:	00db      	lsls	r3, r3, #3
 800260c:	430b      	orrs	r3, r1
 800260e:	6523      	str	r3, [r4, #80]	; 0x50
 8002610:	6d23      	ldr	r3, [r4, #80]	; 0x50
 8002612:	431a      	orrs	r2, r3
 8002614:	6522      	str	r2, [r4, #80]	; 0x50
      tickstart = HAL_GetTick();
 8002616:	f7ff f949 	bl	80018ac <HAL_GetTick>
 800261a:	0007      	movs	r7, r0
      while(__HAL_RCC_GET_FLAG(RCC_FLAG_LSERDY) == 0U)
 800261c:	2280      	movs	r2, #128	; 0x80
 800261e:	6d23      	ldr	r3, [r4, #80]	; 0x50
 8002620:	0092      	lsls	r2, r2, #2
 8002622:	4213      	tst	r3, r2
 8002624:	d010      	beq.n	8002648 <HAL_RCC_OscConfig+0x3b8>
    if(pwrclkchanged == SET)
 8002626:	9b01      	ldr	r3, [sp, #4]
 8002628:	2b01      	cmp	r3, #1
 800262a:	d000      	beq.n	800262e <HAL_RCC_OscConfig+0x39e>
 800262c:	e679      	b.n	8002322 <HAL_RCC_OscConfig+0x92>
      __HAL_RCC_PWR_CLK_DISABLE();
 800262e:	6ba3      	ldr	r3, [r4, #56]	; 0x38
 8002630:	4a3c      	ldr	r2, [pc, #240]	; (8002724 <HAL_RCC_OscConfig+0x494>)
 8002632:	4013      	ands	r3, r2
 8002634:	63a3      	str	r3, [r4, #56]	; 0x38
 8002636:	e674      	b.n	8002322 <HAL_RCC_OscConfig+0x92>
    __HAL_RCC_LSE_CONFIG(RCC_OscInitStruct->LSEState);
 8002638:	6d23      	ldr	r3, [r4, #80]	; 0x50
 800263a:	4a37      	ldr	r2, [pc, #220]	; (8002718 <HAL_RCC_OscConfig+0x488>)
 800263c:	4013      	ands	r3, r2
 800263e:	6523      	str	r3, [r4, #80]	; 0x50
 8002640:	6d23      	ldr	r3, [r4, #80]	; 0x50
 8002642:	4a36      	ldr	r2, [pc, #216]	; (800271c <HAL_RCC_OscConfig+0x48c>)
 8002644:	4013      	ands	r3, r2
 8002646:	e794      	b.n	8002572 <HAL_RCC_OscConfig+0x2e2>
        if((HAL_GetTick() - tickstart ) > RCC_LSE_TIMEOUT_VALUE)
 8002648:	f7ff f930 	bl	80018ac <HAL_GetTick>
 800264c:	4b34      	ldr	r3, [pc, #208]	; (8002720 <HAL_RCC_OscConfig+0x490>)
 800264e:	1bc0      	subs	r0, r0, r7
 8002650:	4298      	cmp	r0, r3
 8002652:	d9e3      	bls.n	800261c <HAL_RCC_OscConfig+0x38c>
 8002654:	e68d      	b.n	8002372 <HAL_RCC_OscConfig+0xe2>
    if(sysclk_source != RCC_SYSCLKSOURCE_STATUS_PLLCLK)
 8002656:	2e0c      	cmp	r6, #12
 8002658:	d043      	beq.n	80026e2 <HAL_RCC_OscConfig+0x452>
      if((RCC_OscInitStruct->PLL.PLLState) == RCC_PLL_ON)
 800265a:	4a33      	ldr	r2, [pc, #204]	; (8002728 <HAL_RCC_OscConfig+0x498>)
 800265c:	2b02      	cmp	r3, #2
 800265e:	d12e      	bne.n	80026be <HAL_RCC_OscConfig+0x42e>
        __HAL_RCC_PLL_DISABLE();
 8002660:	6823      	ldr	r3, [r4, #0]
        while(__HAL_RCC_GET_FLAG(RCC_FLAG_PLLRDY)  != 0U)
 8002662:	2780      	movs	r7, #128	; 0x80
        __HAL_RCC_PLL_DISABLE();
 8002664:	4013      	ands	r3, r2
 8002666:	6023      	str	r3, [r4, #0]
        tickstart = HAL_GetTick();
 8002668:	f7ff f920 	bl	80018ac <HAL_GetTick>
 800266c:	0006      	movs	r6, r0
        while(__HAL_RCC_GET_FLAG(RCC_FLAG_PLLRDY)  != 0U)
 800266e:	04bf      	lsls	r7, r7, #18
 8002670:	6823      	ldr	r3, [r4, #0]
 8002672:	423b      	tst	r3, r7
 8002674:	d11d      	bne.n	80026b2 <HAL_RCC_OscConfig+0x422>
        __HAL_RCC_PLL_CONFIG(RCC_OscInitStruct->PLL.PLLSource,
 8002676:	6ae9      	ldr	r1, [r5, #44]	; 0x2c
 8002678:	6aab      	ldr	r3, [r5, #40]	; 0x28
 800267a:	68e2      	ldr	r2, [r4, #12]
 800267c:	430b      	orrs	r3, r1
 800267e:	492b      	ldr	r1, [pc, #172]	; (800272c <HAL_RCC_OscConfig+0x49c>)
        while(__HAL_RCC_GET_FLAG(RCC_FLAG_PLLRDY)  == 0U)
 8002680:	2680      	movs	r6, #128	; 0x80
        __HAL_RCC_PLL_CONFIG(RCC_OscInitStruct->PLL.PLLSource,
 8002682:	400a      	ands	r2, r1
 8002684:	4313      	orrs	r3, r2
 8002686:	6b2a      	ldr	r2, [r5, #48]	; 0x30
        while(__HAL_RCC_GET_FLAG(RCC_FLAG_PLLRDY)  == 0U)
 8002688:	04b6      	lsls	r6, r6, #18
        __HAL_RCC_PLL_CONFIG(RCC_OscInitStruct->PLL.PLLSource,
 800268a:	4313      	orrs	r3, r2
 800268c:	60e3      	str	r3, [r4, #12]
        __HAL_RCC_PLL_ENABLE();
 800268e:	2380      	movs	r3, #128	; 0x80
 8002690:	6822      	ldr	r2, [r4, #0]
 8002692:	045b      	lsls	r3, r3, #17
 8002694:	4313      	orrs	r3, r2
 8002696:	6023      	str	r3, [r4, #0]
        tickstart = HAL_GetTick();
 8002698:	f7ff f908 	bl	80018ac <HAL_GetTick>
 800269c:	0005      	movs	r5, r0
        while(__HAL_RCC_GET_FLAG(RCC_FLAG_PLLRDY)  == 0U)
 800269e:	6823      	ldr	r3, [r4, #0]
 80026a0:	4233      	tst	r3, r6
 80026a2:	d000      	beq.n	80026a6 <HAL_RCC_OscConfig+0x416>
 80026a4:	e641      	b.n	800232a <HAL_RCC_OscConfig+0x9a>
          if((HAL_GetTick() - tickstart ) > PLL_TIMEOUT_VALUE)
 80026a6:	f7ff f901 	bl	80018ac <HAL_GetTick>
 80026aa:	1b40      	subs	r0, r0, r5
 80026ac:	2802      	cmp	r0, #2
 80026ae:	d9f6      	bls.n	800269e <HAL_RCC_OscConfig+0x40e>
 80026b0:	e65f      	b.n	8002372 <HAL_RCC_OscConfig+0xe2>
          if((HAL_GetTick() - tickstart ) > PLL_TIMEOUT_VALUE)
 80026b2:	f7ff f8fb 	bl	80018ac <HAL_GetTick>
 80026b6:	1b80      	subs	r0, r0, r6
 80026b8:	2802      	cmp	r0, #2
 80026ba:	d9d9      	bls.n	8002670 <HAL_RCC_OscConfig+0x3e0>
 80026bc:	e659      	b.n	8002372 <HAL_RCC_OscConfig+0xe2>
        __HAL_RCC_PLL_DISABLE();
 80026be:	6823      	ldr	r3, [r4, #0]
        while(__HAL_RCC_GET_FLAG(RCC_FLAG_PLLRDY)  != 0U)
 80026c0:	2680      	movs	r6, #128	; 0x80
        __HAL_RCC_PLL_DISABLE();
 80026c2:	4013      	ands	r3, r2
 80026c4:	6023      	str	r3, [r4, #0]
        tickstart = HAL_GetTick();
 80026c6:	f7ff f8f1 	bl	80018ac <HAL_GetTick>
 80026ca:	0005      	movs	r5, r0
        while(__HAL_RCC_GET_FLAG(RCC_FLAG_PLLRDY)  != 0U)
 80026cc:	04b6      	lsls	r6, r6, #18
 80026ce:	6823      	ldr	r3, [r4, #0]
 80026d0:	4233      	tst	r3, r6
 80026d2:	d100      	bne.n	80026d6 <HAL_RCC_OscConfig+0x446>
 80026d4:	e629      	b.n	800232a <HAL_RCC_OscConfig+0x9a>
          if((HAL_GetTick() - tickstart ) > PLL_TIMEOUT_VALUE)
 80026d6:	f7ff f8e9 	bl	80018ac <HAL_GetTick>
 80026da:	1b40      	subs	r0, r0, r5
 80026dc:	2802      	cmp	r0, #2
 80026de:	d9f6      	bls.n	80026ce <HAL_RCC_OscConfig+0x43e>
 80026e0:	e647      	b.n	8002372 <HAL_RCC_OscConfig+0xe2>
        return HAL_ERROR;
 80026e2:	0018      	movs	r0, r3
      if((RCC_OscInitStruct->PLL.PLLState) == RCC_PLL_OFF)
 80026e4:	2b01      	cmp	r3, #1
 80026e6:	d100      	bne.n	80026ea <HAL_RCC_OscConfig+0x45a>
 80026e8:	e644      	b.n	8002374 <HAL_RCC_OscConfig+0xe4>
        if((READ_BIT(pll_config, RCC_CFGR_PLLSRC) != RCC_OscInitStruct->PLL.PLLSource) ||
 80026ea:	2280      	movs	r2, #128	; 0x80
        pll_config = RCC->CFGR;
 80026ec:	68e3      	ldr	r3, [r4, #12]
        if((READ_BIT(pll_config, RCC_CFGR_PLLSRC) != RCC_OscInitStruct->PLL.PLLSource) ||
 80026ee:	6aa9      	ldr	r1, [r5, #40]	; 0x28
 80026f0:	0252      	lsls	r2, r2, #9
 80026f2:	401a      	ands	r2, r3
 80026f4:	428a      	cmp	r2, r1
 80026f6:	d000      	beq.n	80026fa <HAL_RCC_OscConfig+0x46a>
 80026f8:	e625      	b.n	8002346 <HAL_RCC_OscConfig+0xb6>
           (READ_BIT(pll_config, RCC_CFGR_PLLMUL) != RCC_OscInitStruct->PLL.PLLMUL) ||
 80026fa:	22f0      	movs	r2, #240	; 0xf0
        if((READ_BIT(pll_config, RCC_CFGR_PLLSRC) != RCC_OscInitStruct->PLL.PLLSource) ||
 80026fc:	6ae9      	ldr	r1, [r5, #44]	; 0x2c
           (READ_BIT(pll_config, RCC_CFGR_PLLMUL) != RCC_OscInitStruct->PLL.PLLMUL) ||
 80026fe:	0392      	lsls	r2, r2, #14
 8002700:	401a      	ands	r2, r3
        if((READ_BIT(pll_config, RCC_CFGR_PLLSRC) != RCC_OscInitStruct->PLL.PLLSource) ||
 8002702:	428a      	cmp	r2, r1
 8002704:	d000      	beq.n	8002708 <HAL_RCC_OscConfig+0x478>
 8002706:	e61e      	b.n	8002346 <HAL_RCC_OscConfig+0xb6>
           (READ_BIT(pll_config, RCC_CFGR_PLLDIV) != RCC_OscInitStruct->PLL.PLLDIV))
 8002708:	22c0      	movs	r2, #192	; 0xc0
 800270a:	0412      	lsls	r2, r2, #16
 800270c:	4013      	ands	r3, r2
           (READ_BIT(pll_config, RCC_CFGR_PLLMUL) != RCC_OscInitStruct->PLL.PLLMUL) ||
 800270e:	6b2a      	ldr	r2, [r5, #48]	; 0x30
 8002710:	4293      	cmp	r3, r2
 8002712:	d100      	bne.n	8002716 <HAL_RCC_OscConfig+0x486>
 8002714:	e609      	b.n	800232a <HAL_RCC_OscConfig+0x9a>
 8002716:	e616      	b.n	8002346 <HAL_RCC_OscConfig+0xb6>
 8002718:	fffffeff 	.word	0xfffffeff
 800271c:	fffffbff 	.word	0xfffffbff
 8002720:	00001388 	.word	0x00001388
 8002724:	efffffff 	.word	0xefffffff
 8002728:	feffffff 	.word	0xfeffffff
 800272c:	ff02ffff 	.word	0xff02ffff

08002730 <HAL_RCC_ClockConfig>:
{
 8002730:	b5f7      	push	{r0, r1, r2, r4, r5, r6, r7, lr}
 8002732:	1e04      	subs	r4, r0, #0
 8002734:	9101      	str	r1, [sp, #4]
  if(RCC_ClkInitStruct == NULL)
 8002736:	d101      	bne.n	800273c <HAL_RCC_ClockConfig+0xc>
    return HAL_ERROR;
 8002738:	2001      	movs	r0, #1
}
 800273a:	bdfe      	pop	{r1, r2, r3, r4, r5, r6, r7, pc}
  if(FLatency > __HAL_FLASH_GET_LATENCY())
 800273c:	2601      	movs	r6, #1
 800273e:	4d5b      	ldr	r5, [pc, #364]	; (80028ac <HAL_RCC_ClockConfig+0x17c>)
 8002740:	9a01      	ldr	r2, [sp, #4]
 8002742:	682b      	ldr	r3, [r5, #0]
 8002744:	4033      	ands	r3, r6
 8002746:	4293      	cmp	r3, r2
 8002748:	d331      	bcc.n	80027ae <HAL_RCC_ClockConfig+0x7e>
  if(((RCC_ClkInitStruct->ClockType) & RCC_CLOCKTYPE_HCLK) == RCC_CLOCKTYPE_HCLK)
 800274a:	6822      	ldr	r2, [r4, #0]
 800274c:	0793      	lsls	r3, r2, #30
 800274e:	d443      	bmi.n	80027d8 <HAL_RCC_ClockConfig+0xa8>
  if(((RCC_ClkInitStruct->ClockType) & RCC_CLOCKTYPE_SYSCLK) == RCC_CLOCKTYPE_SYSCLK)
 8002750:	07d3      	lsls	r3, r2, #31
 8002752:	d449      	bmi.n	80027e8 <HAL_RCC_ClockConfig+0xb8>
  if(FLatency < __HAL_FLASH_GET_LATENCY())
 8002754:	2601      	movs	r6, #1
 8002756:	682b      	ldr	r3, [r5, #0]
 8002758:	9a01      	ldr	r2, [sp, #4]
 800275a:	4033      	ands	r3, r6
 800275c:	4293      	cmp	r3, r2
 800275e:	d909      	bls.n	8002774 <HAL_RCC_ClockConfig+0x44>
    __HAL_FLASH_SET_LATENCY(FLatency);
 8002760:	682b      	ldr	r3, [r5, #0]
 8002762:	43b3      	bics	r3, r6
 8002764:	602b      	str	r3, [r5, #0]
    tickstart = HAL_GetTick();
 8002766:	f7ff f8a1 	bl	80018ac <HAL_GetTick>
 800276a:	0007      	movs	r7, r0
    while (__HAL_FLASH_GET_LATENCY() != FLatency)
 800276c:	682b      	ldr	r3, [r5, #0]
 800276e:	4233      	tst	r3, r6
 8002770:	d000      	beq.n	8002774 <HAL_RCC_ClockConfig+0x44>
 8002772:	e08c      	b.n	800288e <HAL_RCC_ClockConfig+0x15e>
  if(((RCC_ClkInitStruct->ClockType) & RCC_CLOCKTYPE_PCLK1) == RCC_CLOCKTYPE_PCLK1)
 8002774:	6822      	ldr	r2, [r4, #0]
 8002776:	4d4e      	ldr	r5, [pc, #312]	; (80028b0 <HAL_RCC_ClockConfig+0x180>)
 8002778:	0753      	lsls	r3, r2, #29
 800277a:	d500      	bpl.n	800277e <HAL_RCC_ClockConfig+0x4e>
 800277c:	e08f      	b.n	800289e <HAL_RCC_ClockConfig+0x16e>
  if(((RCC_ClkInitStruct->ClockType) & RCC_CLOCKTYPE_PCLK2) == RCC_CLOCKTYPE_PCLK2)
 800277e:	0713      	lsls	r3, r2, #28
 8002780:	d506      	bpl.n	8002790 <HAL_RCC_ClockConfig+0x60>
    MODIFY_REG(RCC->CFGR, RCC_CFGR_PPRE2, ((RCC_ClkInitStruct->APB2CLKDivider) << 3));
 8002782:	68ea      	ldr	r2, [r5, #12]
 8002784:	6923      	ldr	r3, [r4, #16]
 8002786:	494b      	ldr	r1, [pc, #300]	; (80028b4 <HAL_RCC_ClockConfig+0x184>)
 8002788:	00db      	lsls	r3, r3, #3
 800278a:	400a      	ands	r2, r1
 800278c:	4313      	orrs	r3, r2
 800278e:	60eb      	str	r3, [r5, #12]
  SystemCoreClock = HAL_RCC_GetSysClockFreq() >> AHBPrescTable[(RCC->CFGR & RCC_CFGR_HPRE)>> RCC_CFGR_HPRE_Pos];
 8002790:	f7ff fd36 	bl	8002200 <HAL_RCC_GetSysClockFreq>
 8002794:	68eb      	ldr	r3, [r5, #12]
 8002796:	4a48      	ldr	r2, [pc, #288]	; (80028b8 <HAL_RCC_ClockConfig+0x188>)
 8002798:	061b      	lsls	r3, r3, #24
 800279a:	0f1b      	lsrs	r3, r3, #28
 800279c:	5cd3      	ldrb	r3, [r2, r3]
 800279e:	40d8      	lsrs	r0, r3
 80027a0:	4b46      	ldr	r3, [pc, #280]	; (80028bc <HAL_RCC_ClockConfig+0x18c>)
 80027a2:	6018      	str	r0, [r3, #0]
  status = HAL_InitTick(uwTickPrio);
 80027a4:	4b46      	ldr	r3, [pc, #280]	; (80028c0 <HAL_RCC_ClockConfig+0x190>)
 80027a6:	6818      	ldr	r0, [r3, #0]
 80027a8:	f7ff f83c 	bl	8001824 <HAL_InitTick>
  if(status != HAL_OK)
 80027ac:	e7c5      	b.n	800273a <HAL_RCC_ClockConfig+0xa>
    __HAL_FLASH_SET_LATENCY(FLatency);
 80027ae:	682b      	ldr	r3, [r5, #0]
 80027b0:	9a01      	ldr	r2, [sp, #4]
 80027b2:	43b3      	bics	r3, r6
 80027b4:	4313      	orrs	r3, r2
 80027b6:	602b      	str	r3, [r5, #0]
    tickstart = HAL_GetTick();
 80027b8:	f7ff f878 	bl	80018ac <HAL_GetTick>
 80027bc:	0007      	movs	r7, r0
    while (__HAL_FLASH_GET_LATENCY() != FLatency)
 80027be:	682b      	ldr	r3, [r5, #0]
 80027c0:	9a01      	ldr	r2, [sp, #4]
 80027c2:	4033      	ands	r3, r6
 80027c4:	4293      	cmp	r3, r2
 80027c6:	d0c0      	beq.n	800274a <HAL_RCC_ClockConfig+0x1a>
      if ((HAL_GetTick() - tickstart) > CLOCKSWITCH_TIMEOUT_VALUE)
 80027c8:	f7ff f870 	bl	80018ac <HAL_GetTick>
 80027cc:	4b3d      	ldr	r3, [pc, #244]	; (80028c4 <HAL_RCC_ClockConfig+0x194>)
 80027ce:	1bc0      	subs	r0, r0, r7
 80027d0:	4298      	cmp	r0, r3
 80027d2:	d9f4      	bls.n	80027be <HAL_RCC_ClockConfig+0x8e>
        return HAL_TIMEOUT;
 80027d4:	2003      	movs	r0, #3
 80027d6:	e7b0      	b.n	800273a <HAL_RCC_ClockConfig+0xa>
    MODIFY_REG(RCC->CFGR, RCC_CFGR_HPRE, RCC_ClkInitStruct->AHBCLKDivider);
 80027d8:	20f0      	movs	r0, #240	; 0xf0
 80027da:	4935      	ldr	r1, [pc, #212]	; (80028b0 <HAL_RCC_ClockConfig+0x180>)
 80027dc:	68cb      	ldr	r3, [r1, #12]
 80027de:	4383      	bics	r3, r0
 80027e0:	68a0      	ldr	r0, [r4, #8]
 80027e2:	4303      	orrs	r3, r0
 80027e4:	60cb      	str	r3, [r1, #12]
 80027e6:	e7b3      	b.n	8002750 <HAL_RCC_ClockConfig+0x20>
    if(RCC_ClkInitStruct->SYSCLKSource == RCC_SYSCLKSOURCE_HSE)
 80027e8:	4e31      	ldr	r6, [pc, #196]	; (80028b0 <HAL_RCC_ClockConfig+0x180>)
 80027ea:	6862      	ldr	r2, [r4, #4]
      if(__HAL_RCC_GET_FLAG(RCC_FLAG_HSERDY) == 0U)
 80027ec:	6833      	ldr	r3, [r6, #0]
    if(RCC_ClkInitStruct->SYSCLKSource == RCC_SYSCLKSOURCE_HSE)
 80027ee:	2a02      	cmp	r2, #2
 80027f0:	d118      	bne.n	8002824 <HAL_RCC_ClockConfig+0xf4>
      if(__HAL_RCC_GET_FLAG(RCC_FLAG_HSERDY) == 0U)
 80027f2:	039b      	lsls	r3, r3, #14
 80027f4:	d5a0      	bpl.n	8002738 <HAL_RCC_ClockConfig+0x8>
    __HAL_RCC_SYSCLK_CONFIG(RCC_ClkInitStruct->SYSCLKSource);
 80027f6:	2103      	movs	r1, #3
 80027f8:	68f3      	ldr	r3, [r6, #12]
 80027fa:	438b      	bics	r3, r1
 80027fc:	4313      	orrs	r3, r2
 80027fe:	60f3      	str	r3, [r6, #12]
    tickstart = HAL_GetTick();
 8002800:	f7ff f854 	bl	80018ac <HAL_GetTick>
    if(RCC_ClkInitStruct->SYSCLKSource == RCC_SYSCLKSOURCE_HSE)
 8002804:	6863      	ldr	r3, [r4, #4]
    tickstart = HAL_GetTick();
 8002806:	0007      	movs	r7, r0
    if(RCC_ClkInitStruct->SYSCLKSource == RCC_SYSCLKSOURCE_HSE)
 8002808:	2b02      	cmp	r3, #2
 800280a:	d118      	bne.n	800283e <HAL_RCC_ClockConfig+0x10e>
      while (__HAL_RCC_GET_SYSCLK_SOURCE() != RCC_SYSCLKSOURCE_STATUS_HSE)
 800280c:	220c      	movs	r2, #12
 800280e:	68f3      	ldr	r3, [r6, #12]
 8002810:	4013      	ands	r3, r2
 8002812:	2b08      	cmp	r3, #8
 8002814:	d09e      	beq.n	8002754 <HAL_RCC_ClockConfig+0x24>
        if((HAL_GetTick() - tickstart ) > CLOCKSWITCH_TIMEOUT_VALUE)
 8002816:	f7ff f849 	bl	80018ac <HAL_GetTick>
 800281a:	4b2a      	ldr	r3, [pc, #168]	; (80028c4 <HAL_RCC_ClockConfig+0x194>)
 800281c:	1bc0      	subs	r0, r0, r7
 800281e:	4298      	cmp	r0, r3
 8002820:	d9f4      	bls.n	800280c <HAL_RCC_ClockConfig+0xdc>
 8002822:	e7d7      	b.n	80027d4 <HAL_RCC_ClockConfig+0xa4>
    else if(RCC_ClkInitStruct->SYSCLKSource == RCC_SYSCLKSOURCE_PLLCLK)
 8002824:	2a03      	cmp	r2, #3
 8002826:	d102      	bne.n	800282e <HAL_RCC_ClockConfig+0xfe>
      if(__HAL_RCC_GET_FLAG(RCC_FLAG_PLLRDY) == 0U)
 8002828:	019b      	lsls	r3, r3, #6
 800282a:	d4e4      	bmi.n	80027f6 <HAL_RCC_ClockConfig+0xc6>
 800282c:	e784      	b.n	8002738 <HAL_RCC_ClockConfig+0x8>
    else if(RCC_ClkInitStruct->SYSCLKSource == RCC_SYSCLKSOURCE_HSI)
 800282e:	2a01      	cmp	r2, #1
 8002830:	d102      	bne.n	8002838 <HAL_RCC_ClockConfig+0x108>
      if(__HAL_RCC_GET_FLAG(RCC_FLAG_HSIRDY) == 0U)
 8002832:	075b      	lsls	r3, r3, #29
 8002834:	d4df      	bmi.n	80027f6 <HAL_RCC_ClockConfig+0xc6>
 8002836:	e77f      	b.n	8002738 <HAL_RCC_ClockConfig+0x8>
      if(__HAL_RCC_GET_FLAG(RCC_FLAG_MSIRDY) == 0U)
 8002838:	059b      	lsls	r3, r3, #22
 800283a:	d4dc      	bmi.n	80027f6 <HAL_RCC_ClockConfig+0xc6>
 800283c:	e77c      	b.n	8002738 <HAL_RCC_ClockConfig+0x8>
    else if(RCC_ClkInitStruct->SYSCLKSource == RCC_SYSCLKSOURCE_PLLCLK)
 800283e:	2b03      	cmp	r3, #3
 8002840:	d10b      	bne.n	800285a <HAL_RCC_ClockConfig+0x12a>
      while (__HAL_RCC_GET_SYSCLK_SOURCE() != RCC_SYSCLKSOURCE_STATUS_PLLCLK)
 8002842:	220c      	movs	r2, #12
 8002844:	68f3      	ldr	r3, [r6, #12]
 8002846:	4013      	ands	r3, r2
 8002848:	4293      	cmp	r3, r2
 800284a:	d083      	beq.n	8002754 <HAL_RCC_ClockConfig+0x24>
        if((HAL_GetTick() - tickstart ) > CLOCKSWITCH_TIMEOUT_VALUE)
 800284c:	f7ff f82e 	bl	80018ac <HAL_GetTick>
 8002850:	4b1c      	ldr	r3, [pc, #112]	; (80028c4 <HAL_RCC_ClockConfig+0x194>)
 8002852:	1bc0      	subs	r0, r0, r7
 8002854:	4298      	cmp	r0, r3
 8002856:	d9f4      	bls.n	8002842 <HAL_RCC_ClockConfig+0x112>
 8002858:	e7bc      	b.n	80027d4 <HAL_RCC_ClockConfig+0xa4>
    else if(RCC_ClkInitStruct->SYSCLKSource == RCC_SYSCLKSOURCE_HSI)
 800285a:	2b01      	cmp	r3, #1
 800285c:	d011      	beq.n	8002882 <HAL_RCC_ClockConfig+0x152>
      while(__HAL_RCC_GET_SYSCLK_SOURCE() != RCC_SYSCLKSOURCE_STATUS_MSI)
 800285e:	220c      	movs	r2, #12
 8002860:	68f3      	ldr	r3, [r6, #12]
 8002862:	4213      	tst	r3, r2
 8002864:	d100      	bne.n	8002868 <HAL_RCC_ClockConfig+0x138>
 8002866:	e775      	b.n	8002754 <HAL_RCC_ClockConfig+0x24>
        if((HAL_GetTick() - tickstart ) > CLOCKSWITCH_TIMEOUT_VALUE)
 8002868:	f7ff f820 	bl	80018ac <HAL_GetTick>
 800286c:	4b15      	ldr	r3, [pc, #84]	; (80028c4 <HAL_RCC_ClockConfig+0x194>)
 800286e:	1bc0      	subs	r0, r0, r7
 8002870:	4298      	cmp	r0, r3
 8002872:	d9f4      	bls.n	800285e <HAL_RCC_ClockConfig+0x12e>
 8002874:	e7ae      	b.n	80027d4 <HAL_RCC_ClockConfig+0xa4>
        if((HAL_GetTick() - tickstart ) > CLOCKSWITCH_TIMEOUT_VALUE)
 8002876:	f7ff f819 	bl	80018ac <HAL_GetTick>
 800287a:	4b12      	ldr	r3, [pc, #72]	; (80028c4 <HAL_RCC_ClockConfig+0x194>)
 800287c:	1bc0      	subs	r0, r0, r7
 800287e:	4298      	cmp	r0, r3
 8002880:	d8a8      	bhi.n	80027d4 <HAL_RCC_ClockConfig+0xa4>
      while (__HAL_RCC_GET_SYSCLK_SOURCE() != RCC_SYSCLKSOURCE_STATUS_HSI)
 8002882:	220c      	movs	r2, #12
 8002884:	68f3      	ldr	r3, [r6, #12]
 8002886:	4013      	ands	r3, r2
 8002888:	2b04      	cmp	r3, #4
 800288a:	d1f4      	bne.n	8002876 <HAL_RCC_ClockConfig+0x146>
 800288c:	e762      	b.n	8002754 <HAL_RCC_ClockConfig+0x24>
      if ((HAL_GetTick() - tickstart) > CLOCKSWITCH_TIMEOUT_VALUE)
 800288e:	f7ff f80d 	bl	80018ac <HAL_GetTick>
 8002892:	4b0c      	ldr	r3, [pc, #48]	; (80028c4 <HAL_RCC_ClockConfig+0x194>)
 8002894:	1bc0      	subs	r0, r0, r7
 8002896:	4298      	cmp	r0, r3
 8002898:	d800      	bhi.n	800289c <HAL_RCC_ClockConfig+0x16c>
 800289a:	e767      	b.n	800276c <HAL_RCC_ClockConfig+0x3c>
 800289c:	e79a      	b.n	80027d4 <HAL_RCC_ClockConfig+0xa4>
    MODIFY_REG(RCC->CFGR, RCC_CFGR_PPRE1, RCC_ClkInitStruct->APB1CLKDivider);
 800289e:	68eb      	ldr	r3, [r5, #12]
 80028a0:	4909      	ldr	r1, [pc, #36]	; (80028c8 <HAL_RCC_ClockConfig+0x198>)
 80028a2:	400b      	ands	r3, r1
 80028a4:	68e1      	ldr	r1, [r4, #12]
 80028a6:	430b      	orrs	r3, r1
 80028a8:	60eb      	str	r3, [r5, #12]
 80028aa:	e768      	b.n	800277e <HAL_RCC_ClockConfig+0x4e>
 80028ac:	40022000 	.word	0x40022000
 80028b0:	40021000 	.word	0x40021000
 80028b4:	ffffc7ff 	.word	0xffffc7ff
 80028b8:	080036f2 	.word	0x080036f2
 80028bc:	20000004 	.word	0x20000004
 80028c0:	2000000c 	.word	0x2000000c
 80028c4:	00001388 	.word	0x00001388
 80028c8:	fffff8ff 	.word	0xfffff8ff

080028cc <HAL_RCCEx_PeriphCLKConfig>:

  /* Check the parameters */
  assert_param(IS_RCC_PERIPHCLOCK(PeriphClkInit->PeriphClockSelection));

  /*------------------------------- RTC/LCD Configuration ------------------------*/
  if ((((PeriphClkInit->PeriphClockSelection) & RCC_PERIPHCLK_RTC) == RCC_PERIPHCLK_RTC)
 80028cc:	6803      	ldr	r3, [r0, #0]
{
 80028ce:	b5f7      	push	{r0, r1, r2, r4, r5, r6, r7, lr}
 80028d0:	0005      	movs	r5, r0
  if ((((PeriphClkInit->PeriphClockSelection) & RCC_PERIPHCLK_RTC) == RCC_PERIPHCLK_RTC)
 80028d2:	069b      	lsls	r3, r3, #26
 80028d4:	d53d      	bpl.n	8002952 <HAL_RCCEx_PeriphCLKConfig+0x86>
#endif /* LCD */

    /* As soon as function is called to change RTC clock source, activation of the
       power domain is done. */
    /* Requires to enable write access to Backup Domain of necessary */
    if(__HAL_RCC_PWR_IS_CLK_DISABLED())
 80028d6:	2380      	movs	r3, #128	; 0x80
  FlagStatus       pwrclkchanged = RESET;
 80028d8:	2100      	movs	r1, #0
    if(__HAL_RCC_PWR_IS_CLK_DISABLED())
 80028da:	4c50      	ldr	r4, [pc, #320]	; (8002a1c <HAL_RCCEx_PeriphCLKConfig+0x150>)
 80028dc:	055b      	lsls	r3, r3, #21
 80028de:	6ba2      	ldr	r2, [r4, #56]	; 0x38
  FlagStatus       pwrclkchanged = RESET;
 80028e0:	9100      	str	r1, [sp, #0]
    if(__HAL_RCC_PWR_IS_CLK_DISABLED())
 80028e2:	421a      	tst	r2, r3
 80028e4:	d104      	bne.n	80028f0 <HAL_RCCEx_PeriphCLKConfig+0x24>
    {
      __HAL_RCC_PWR_CLK_ENABLE();
 80028e6:	6ba2      	ldr	r2, [r4, #56]	; 0x38
 80028e8:	4313      	orrs	r3, r2
 80028ea:	63a3      	str	r3, [r4, #56]	; 0x38
      pwrclkchanged = SET;
 80028ec:	2301      	movs	r3, #1
 80028ee:	9300      	str	r3, [sp, #0]
    }

    if(HAL_IS_BIT_CLR(PWR->CR, PWR_CR_DBP))
 80028f0:	2780      	movs	r7, #128	; 0x80
 80028f2:	4e4b      	ldr	r6, [pc, #300]	; (8002a20 <HAL_RCCEx_PeriphCLKConfig+0x154>)
 80028f4:	007f      	lsls	r7, r7, #1
 80028f6:	6833      	ldr	r3, [r6, #0]
 80028f8:	423b      	tst	r3, r7
 80028fa:	d051      	beq.n	80029a0 <HAL_RCCEx_PeriphCLKConfig+0xd4>
      }
    }

    /* Check if user wants to change HSE RTC prescaler whereas HSE is enabled */
    temp_reg = (RCC->CR & RCC_CR_RTCPRE);
    if ((temp_reg != (PeriphClkInit->RTCClockSelection & RCC_CR_RTCPRE))
 80028fc:	686b      	ldr	r3, [r5, #4]
 80028fe:	22c0      	movs	r2, #192	; 0xc0
 8002900:	20c0      	movs	r0, #192	; 0xc0
 8002902:	001e      	movs	r6, r3
    temp_reg = (RCC->CR & RCC_CR_RTCPRE);
 8002904:	6821      	ldr	r1, [r4, #0]
    if ((temp_reg != (PeriphClkInit->RTCClockSelection & RCC_CR_RTCPRE))
 8002906:	0292      	lsls	r2, r2, #10
 8002908:	0380      	lsls	r0, r0, #14
 800290a:	0017      	movs	r7, r2
 800290c:	4016      	ands	r6, r2
 800290e:	4003      	ands	r3, r0
    temp_reg = (RCC->CR & RCC_CR_RTCPRE);
 8002910:	4001      	ands	r1, r0
    if ((temp_reg != (PeriphClkInit->RTCClockSelection & RCC_CR_RTCPRE))
 8002912:	428b      	cmp	r3, r1
 8002914:	d155      	bne.n	80029c2 <HAL_RCCEx_PeriphCLKConfig+0xf6>
        }
      }
    }

    /* Reset the Backup domain only if the RTC Clock source selection is modified from reset value */
    temp_reg = (RCC->CSR & RCC_CSR_RTCSEL);
 8002916:	6d23      	ldr	r3, [r4, #80]	; 0x50
 8002918:	001a      	movs	r2, r3
 800291a:	403a      	ands	r2, r7

    if((temp_reg != 0x00000000U) && (((temp_reg != (PeriphClkInit->RTCClockSelection & RCC_CSR_RTCSEL)) \
 800291c:	423b      	tst	r3, r7
 800291e:	d157      	bne.n	80029d0 <HAL_RCCEx_PeriphCLKConfig+0x104>
            return HAL_TIMEOUT;
          }
        }
      }
    }
    __HAL_RCC_RTC_CONFIG(PeriphClkInit->RTCClockSelection);
 8002920:	6869      	ldr	r1, [r5, #4]
 8002922:	23c0      	movs	r3, #192	; 0xc0
 8002924:	000a      	movs	r2, r1
 8002926:	029b      	lsls	r3, r3, #10
 8002928:	401a      	ands	r2, r3
 800292a:	429a      	cmp	r2, r3
 800292c:	d107      	bne.n	800293e <HAL_RCCEx_PeriphCLKConfig+0x72>
 800292e:	6823      	ldr	r3, [r4, #0]
 8002930:	483c      	ldr	r0, [pc, #240]	; (8002a24 <HAL_RCCEx_PeriphCLKConfig+0x158>)
 8002932:	4003      	ands	r3, r0
 8002934:	20c0      	movs	r0, #192	; 0xc0
 8002936:	0380      	lsls	r0, r0, #14
 8002938:	4001      	ands	r1, r0
 800293a:	430b      	orrs	r3, r1
 800293c:	6023      	str	r3, [r4, #0]
 800293e:	6d23      	ldr	r3, [r4, #80]	; 0x50
 8002940:	431a      	orrs	r2, r3

    /* Require to disable power clock if necessary */
    if(pwrclkchanged == SET)
 8002942:	9b00      	ldr	r3, [sp, #0]
    __HAL_RCC_RTC_CONFIG(PeriphClkInit->RTCClockSelection);
 8002944:	6522      	str	r2, [r4, #80]	; 0x50
    if(pwrclkchanged == SET)
 8002946:	2b01      	cmp	r3, #1
 8002948:	d103      	bne.n	8002952 <HAL_RCCEx_PeriphCLKConfig+0x86>
    {
      __HAL_RCC_PWR_CLK_DISABLE();
 800294a:	6ba3      	ldr	r3, [r4, #56]	; 0x38
 800294c:	4a36      	ldr	r2, [pc, #216]	; (8002a28 <HAL_RCCEx_PeriphCLKConfig+0x15c>)
 800294e:	4013      	ands	r3, r2
 8002950:	63a3      	str	r3, [r4, #56]	; 0x38
    __HAL_RCC_USART1_CONFIG(PeriphClkInit->Usart1ClockSelection);
  }
#endif /* RCC_CCIPR_USART1SEL */

  /*----------------------------- USART2 Configuration --------------------------*/
  if(((PeriphClkInit->PeriphClockSelection) & RCC_PERIPHCLK_USART2) == RCC_PERIPHCLK_USART2)
 8002952:	682a      	ldr	r2, [r5, #0]
 8002954:	0793      	lsls	r3, r2, #30
 8002956:	d506      	bpl.n	8002966 <HAL_RCCEx_PeriphCLKConfig+0x9a>
  {
    /* Check the parameters */
    assert_param(IS_RCC_USART2CLKSOURCE(PeriphClkInit->Usart2ClockSelection));

    /* Configure the USART2 clock source */
    __HAL_RCC_USART2_CONFIG(PeriphClkInit->Usart2ClockSelection);
 8002958:	200c      	movs	r0, #12
 800295a:	4930      	ldr	r1, [pc, #192]	; (8002a1c <HAL_RCCEx_PeriphCLKConfig+0x150>)
 800295c:	6ccb      	ldr	r3, [r1, #76]	; 0x4c
 800295e:	4383      	bics	r3, r0
 8002960:	68a8      	ldr	r0, [r5, #8]
 8002962:	4303      	orrs	r3, r0
 8002964:	64cb      	str	r3, [r1, #76]	; 0x4c
  }

  /*------------------------------ LPUART1 Configuration ------------------------*/
  if(((PeriphClkInit->PeriphClockSelection) & RCC_PERIPHCLK_LPUART1) == RCC_PERIPHCLK_LPUART1)
 8002966:	0753      	lsls	r3, r2, #29
 8002968:	d506      	bpl.n	8002978 <HAL_RCCEx_PeriphCLKConfig+0xac>
  {
    /* Check the parameters */
    assert_param(IS_RCC_LPUART1CLKSOURCE(PeriphClkInit->Lpuart1ClockSelection));

    /* Configure the LPUAR1 clock source */
    __HAL_RCC_LPUART1_CONFIG(PeriphClkInit->Lpuart1ClockSelection);
 800296a:	492c      	ldr	r1, [pc, #176]	; (8002a1c <HAL_RCCEx_PeriphCLKConfig+0x150>)
 800296c:	482f      	ldr	r0, [pc, #188]	; (8002a2c <HAL_RCCEx_PeriphCLKConfig+0x160>)
 800296e:	6ccb      	ldr	r3, [r1, #76]	; 0x4c
 8002970:	4003      	ands	r3, r0
 8002972:	68e8      	ldr	r0, [r5, #12]
 8002974:	4303      	orrs	r3, r0
 8002976:	64cb      	str	r3, [r1, #76]	; 0x4c
  }

  /*------------------------------ I2C1 Configuration ------------------------*/
  if(((PeriphClkInit->PeriphClockSelection) & RCC_PERIPHCLK_I2C1) == RCC_PERIPHCLK_I2C1)
 8002978:	0713      	lsls	r3, r2, #28
 800297a:	d506      	bpl.n	800298a <HAL_RCCEx_PeriphCLKConfig+0xbe>
  {
    /* Check the parameters */
    assert_param(IS_RCC_I2C1CLKSOURCE(PeriphClkInit->I2c1ClockSelection));

    /* Configure the I2C1 clock source */
    __HAL_RCC_I2C1_CONFIG(PeriphClkInit->I2c1ClockSelection);
 800297c:	4927      	ldr	r1, [pc, #156]	; (8002a1c <HAL_RCCEx_PeriphCLKConfig+0x150>)
 800297e:	482c      	ldr	r0, [pc, #176]	; (8002a30 <HAL_RCCEx_PeriphCLKConfig+0x164>)
 8002980:	6ccb      	ldr	r3, [r1, #76]	; 0x4c
 8002982:	4003      	ands	r3, r0
 8002984:	6928      	ldr	r0, [r5, #16]
 8002986:	4303      	orrs	r3, r0
 8002988:	64cb      	str	r3, [r1, #76]	; 0x4c
  {
    assert_param(IS_RCC_LPTIMCLK(PeriphClkInit->LptimClockSelection));
    __HAL_RCC_LPTIM1_CONFIG(PeriphClkInit->LptimClockSelection);
  }

  return HAL_OK;
 800298a:	2000      	movs	r0, #0
  if(((PeriphClkInit->PeriphClockSelection) & RCC_PERIPHCLK_LPTIM1) == (RCC_PERIPHCLK_LPTIM1))
 800298c:	0613      	lsls	r3, r2, #24
 800298e:	d517      	bpl.n	80029c0 <HAL_RCCEx_PeriphCLKConfig+0xf4>
    __HAL_RCC_LPTIM1_CONFIG(PeriphClkInit->LptimClockSelection);
 8002990:	4a22      	ldr	r2, [pc, #136]	; (8002a1c <HAL_RCCEx_PeriphCLKConfig+0x150>)
 8002992:	4928      	ldr	r1, [pc, #160]	; (8002a34 <HAL_RCCEx_PeriphCLKConfig+0x168>)
 8002994:	6cd3      	ldr	r3, [r2, #76]	; 0x4c
 8002996:	400b      	ands	r3, r1
 8002998:	6969      	ldr	r1, [r5, #20]
 800299a:	430b      	orrs	r3, r1
 800299c:	64d3      	str	r3, [r2, #76]	; 0x4c
 800299e:	e00f      	b.n	80029c0 <HAL_RCCEx_PeriphCLKConfig+0xf4>
      SET_BIT(PWR->CR, PWR_CR_DBP);
 80029a0:	6833      	ldr	r3, [r6, #0]
 80029a2:	433b      	orrs	r3, r7
 80029a4:	6033      	str	r3, [r6, #0]
      tickstart = HAL_GetTick();
 80029a6:	f7fe ff81 	bl	80018ac <HAL_GetTick>
 80029aa:	9001      	str	r0, [sp, #4]
      while(HAL_IS_BIT_CLR(PWR->CR, PWR_CR_DBP))
 80029ac:	6833      	ldr	r3, [r6, #0]
 80029ae:	423b      	tst	r3, r7
 80029b0:	d1a4      	bne.n	80028fc <HAL_RCCEx_PeriphCLKConfig+0x30>
        if((HAL_GetTick() - tickstart) > RCC_DBP_TIMEOUT_VALUE)
 80029b2:	f7fe ff7b 	bl	80018ac <HAL_GetTick>
 80029b6:	9b01      	ldr	r3, [sp, #4]
 80029b8:	1ac0      	subs	r0, r0, r3
 80029ba:	2864      	cmp	r0, #100	; 0x64
 80029bc:	d9f6      	bls.n	80029ac <HAL_RCCEx_PeriphCLKConfig+0xe0>
          return HAL_TIMEOUT;
 80029be:	2003      	movs	r0, #3
}
 80029c0:	bdfe      	pop	{r1, r2, r3, r4, r5, r6, r7, pc}
      if ((PeriphClkInit->RTCClockSelection & RCC_CSR_RTCSEL) == RCC_CSR_RTCSEL_HSE)
 80029c2:	4296      	cmp	r6, r2
 80029c4:	d1a7      	bne.n	8002916 <HAL_RCCEx_PeriphCLKConfig+0x4a>
        if (HAL_IS_BIT_SET(RCC->CR, RCC_CR_HSERDY))
 80029c6:	6823      	ldr	r3, [r4, #0]
          return HAL_ERROR;
 80029c8:	2001      	movs	r0, #1
        if (HAL_IS_BIT_SET(RCC->CR, RCC_CR_HSERDY))
 80029ca:	039b      	lsls	r3, r3, #14
 80029cc:	d5a3      	bpl.n	8002916 <HAL_RCCEx_PeriphCLKConfig+0x4a>
 80029ce:	e7f7      	b.n	80029c0 <HAL_RCCEx_PeriphCLKConfig+0xf4>
    if((temp_reg != 0x00000000U) && (((temp_reg != (PeriphClkInit->RTCClockSelection & RCC_CSR_RTCSEL)) \
 80029d0:	42b2      	cmp	r2, r6
 80029d2:	d0a5      	beq.n	8002920 <HAL_RCCEx_PeriphCLKConfig+0x54>
      && (((PeriphClkInit->PeriphClockSelection) & RCC_PERIPHCLK_RTC) == RCC_PERIPHCLK_RTC))
 80029d4:	682b      	ldr	r3, [r5, #0]
 80029d6:	069b      	lsls	r3, r3, #26
 80029d8:	d5a2      	bpl.n	8002920 <HAL_RCCEx_PeriphCLKConfig+0x54>
      __HAL_RCC_BACKUPRESET_FORCE();
 80029da:	2280      	movs	r2, #128	; 0x80
      temp_reg = (RCC->CSR & ~(RCC_CSR_RTCSEL));
 80029dc:	6d21      	ldr	r1, [r4, #80]	; 0x50
      __HAL_RCC_BACKUPRESET_FORCE();
 80029de:	6d20      	ldr	r0, [r4, #80]	; 0x50
 80029e0:	0312      	lsls	r2, r2, #12
 80029e2:	4302      	orrs	r2, r0
 80029e4:	6522      	str	r2, [r4, #80]	; 0x50
      __HAL_RCC_BACKUPRESET_RELEASE();
 80029e6:	6d22      	ldr	r2, [r4, #80]	; 0x50
      temp_reg = (RCC->CSR & ~(RCC_CSR_RTCSEL));
 80029e8:	4b13      	ldr	r3, [pc, #76]	; (8002a38 <HAL_RCCEx_PeriphCLKConfig+0x16c>)
      __HAL_RCC_BACKUPRESET_RELEASE();
 80029ea:	4814      	ldr	r0, [pc, #80]	; (8002a3c <HAL_RCCEx_PeriphCLKConfig+0x170>)
      temp_reg = (RCC->CSR & ~(RCC_CSR_RTCSEL));
 80029ec:	400b      	ands	r3, r1
      __HAL_RCC_BACKUPRESET_RELEASE();
 80029ee:	4002      	ands	r2, r0
 80029f0:	6522      	str	r2, [r4, #80]	; 0x50
      RCC->CSR = temp_reg;
 80029f2:	6523      	str	r3, [r4, #80]	; 0x50
      if (HAL_IS_BIT_SET(temp_reg, RCC_CSR_LSEON))
 80029f4:	05cb      	lsls	r3, r1, #23
 80029f6:	d400      	bmi.n	80029fa <HAL_RCCEx_PeriphCLKConfig+0x12e>
 80029f8:	e792      	b.n	8002920 <HAL_RCCEx_PeriphCLKConfig+0x54>
        tickstart = HAL_GetTick();
 80029fa:	f7fe ff57 	bl	80018ac <HAL_GetTick>
        while(__HAL_RCC_GET_FLAG(RCC_FLAG_LSERDY) == 0U)
 80029fe:	2780      	movs	r7, #128	; 0x80
        tickstart = HAL_GetTick();
 8002a00:	0006      	movs	r6, r0
        while(__HAL_RCC_GET_FLAG(RCC_FLAG_LSERDY) == 0U)
 8002a02:	00bf      	lsls	r7, r7, #2
 8002a04:	6d23      	ldr	r3, [r4, #80]	; 0x50
 8002a06:	423b      	tst	r3, r7
 8002a08:	d000      	beq.n	8002a0c <HAL_RCCEx_PeriphCLKConfig+0x140>
 8002a0a:	e789      	b.n	8002920 <HAL_RCCEx_PeriphCLKConfig+0x54>
          if((HAL_GetTick() - tickstart ) > RCC_LSE_TIMEOUT_VALUE)
 8002a0c:	f7fe ff4e 	bl	80018ac <HAL_GetTick>
 8002a10:	4b0b      	ldr	r3, [pc, #44]	; (8002a40 <HAL_RCCEx_PeriphCLKConfig+0x174>)
 8002a12:	1b80      	subs	r0, r0, r6
 8002a14:	4298      	cmp	r0, r3
 8002a16:	d9f5      	bls.n	8002a04 <HAL_RCCEx_PeriphCLKConfig+0x138>
 8002a18:	e7d1      	b.n	80029be <HAL_RCCEx_PeriphCLKConfig+0xf2>
 8002a1a:	46c0      	nop			; (mov r8, r8)
 8002a1c:	40021000 	.word	0x40021000
 8002a20:	40007000 	.word	0x40007000
 8002a24:	ffcfffff 	.word	0xffcfffff
 8002a28:	efffffff 	.word	0xefffffff
 8002a2c:	fffff3ff 	.word	0xfffff3ff
 8002a30:	ffffcfff 	.word	0xffffcfff
 8002a34:	fff3ffff 	.word	0xfff3ffff
 8002a38:	fffcffff 	.word	0xfffcffff
 8002a3c:	fff7ffff 	.word	0xfff7ffff
 8002a40:	00001388 	.word	0x00001388

08002a44 <LL_ADC_Init>:
  return (READ_BIT(ADCx->CR, ADC_CR_ADEN) == (ADC_CR_ADEN));
 8002a44:	6882      	ldr	r2, [r0, #8]
  * @retval An ErrorStatus enumeration value:
  *          - SUCCESS: ADC registers are initialized
  *          - ERROR: ADC registers are not initialized
  */
ErrorStatus LL_ADC_Init(ADC_TypeDef *ADCx, LL_ADC_InitTypeDef *ADC_InitStruct)
{
 8002a46:	0003      	movs	r3, r0
 8002a48:	b530      	push	{r4, r5, lr}
  assert_param(IS_LL_ADC_DATA_ALIGN(ADC_InitStruct->DataAlignment));
  assert_param(IS_LL_ADC_LOW_POWER(ADC_InitStruct->LowPowerMode));
  
  /* Note: Hardware constraint (refer to description of this function):       */
  /*       ADC instance must be disabled.                                     */
  if(LL_ADC_IsEnabled(ADCx) == 0U)
 8002a4a:	2001      	movs	r0, #1
 8002a4c:	0014      	movs	r4, r2
 8002a4e:	4004      	ands	r4, r0
 8002a50:	4202      	tst	r2, r0
 8002a52:	d110      	bne.n	8002a76 <LL_ADC_Init+0x32>
    /* Configuration of ADC hierarchical scope:                               */
    /*  - ADC instance                                                        */
    /*    - Set ADC data resolution                                           */
    /*    - Set ADC conversion data alignment                                 */
    /*    - Set ADC low power mode                                            */
    MODIFY_REG(ADCx->CFGR1,
 8002a54:	688d      	ldr	r5, [r1, #8]
 8002a56:	684a      	ldr	r2, [r1, #4]
 8002a58:	68d8      	ldr	r0, [r3, #12]
 8002a5a:	432a      	orrs	r2, r5
 8002a5c:	68cd      	ldr	r5, [r1, #12]
                 ADC_InitStruct->Resolution
               | ADC_InitStruct->DataAlignment
               | ADC_InitStruct->LowPowerMode
              );
    
    MODIFY_REG(ADCx->CFGR2,
 8002a5e:	6809      	ldr	r1, [r1, #0]
    MODIFY_REG(ADCx->CFGR1,
 8002a60:	432a      	orrs	r2, r5
 8002a62:	4d05      	ldr	r5, [pc, #20]	; (8002a78 <LL_ADC_Init+0x34>)
 8002a64:	4028      	ands	r0, r5
 8002a66:	4302      	orrs	r2, r0
  ErrorStatus status = SUCCESS;
 8002a68:	0020      	movs	r0, r4
    MODIFY_REG(ADCx->CFGR1,
 8002a6a:	60da      	str	r2, [r3, #12]
    MODIFY_REG(ADCx->CFGR2,
 8002a6c:	691a      	ldr	r2, [r3, #16]
 8002a6e:	0092      	lsls	r2, r2, #2
 8002a70:	0892      	lsrs	r2, r2, #2
 8002a72:	430a      	orrs	r2, r1
 8002a74:	611a      	str	r2, [r3, #16]
  {
    /* Initialization error: ADC instance is not disabled. */
    status = ERROR;
  }
  return status;
}
 8002a76:	bd30      	pop	{r4, r5, pc}
 8002a78:	ffff3fc7 	.word	0xffff3fc7

08002a7c <LL_ADC_REG_Init>:
 8002a7c:	6883      	ldr	r3, [r0, #8]
  * @retval An ErrorStatus enumeration value:
  *          - SUCCESS: ADC registers are initialized
  *          - ERROR: ADC registers are not initialized
  */
ErrorStatus LL_ADC_REG_Init(ADC_TypeDef *ADCx, LL_ADC_REG_InitTypeDef *ADC_REG_InitStruct)
{
 8002a7e:	0002      	movs	r2, r0
 8002a80:	b530      	push	{r4, r5, lr}
  assert_param((ADC_REG_InitStruct->ContinuousMode == LL_ADC_REG_CONV_SINGLE)
               || (ADC_REG_InitStruct->SequencerDiscont == LL_ADC_REG_SEQ_DISCONT_DISABLE));

  /* Note: Hardware constraint (refer to description of this function):       */
  /*       ADC instance must be disabled.                                     */
  if(LL_ADC_IsEnabled(ADCx) == 0U)
 8002a82:	2001      	movs	r0, #1
 8002a84:	001c      	movs	r4, r3
 8002a86:	4004      	ands	r4, r0
 8002a88:	4203      	tst	r3, r0
 8002a8a:	d10e      	bne.n	8002aaa <LL_ADC_REG_Init+0x2e>
    /*    - Set ADC group regular conversion data transfer: no transfer or    */
    /*      transfer by DMA, and DMA requests mode                            */
    /*    - Set ADC group regular overrun behavior                            */
    /* Note: On this STM32 serie, ADC trigger edge is set to value 0x0 by     */
    /*       setting of trigger source to SW start.                           */
    MODIFY_REG(ADCx->CFGR1,
 8002a8c:	684d      	ldr	r5, [r1, #4]
 8002a8e:	680b      	ldr	r3, [r1, #0]
 8002a90:	68d0      	ldr	r0, [r2, #12]
 8002a92:	432b      	orrs	r3, r5
 8002a94:	688d      	ldr	r5, [r1, #8]
 8002a96:	432b      	orrs	r3, r5
 8002a98:	68cd      	ldr	r5, [r1, #12]
 8002a9a:	6909      	ldr	r1, [r1, #16]
 8002a9c:	432b      	orrs	r3, r5
 8002a9e:	430b      	orrs	r3, r1
 8002aa0:	4902      	ldr	r1, [pc, #8]	; (8002aac <LL_ADC_REG_Init+0x30>)
 8002aa2:	4001      	ands	r1, r0
  ErrorStatus status = SUCCESS;
 8002aa4:	0020      	movs	r0, r4
    MODIFY_REG(ADCx->CFGR1,
 8002aa6:	430b      	orrs	r3, r1
 8002aa8:	60d3      	str	r3, [r2, #12]
  {
    /* Initialization error: ADC instance is not disabled. */
    status = ERROR;
  }
  return status;
}
 8002aaa:	bd30      	pop	{r4, r5, pc}
 8002aac:	fffec23c 	.word	0xfffec23c

08002ab0 <LL_GPIO_Init>:
  * @retval An ErrorStatus enumeration value:
  *          - SUCCESS: GPIO registers are initialized according to GPIO_InitStruct content
  *          - ERROR:   Not applicable
  */
ErrorStatus LL_GPIO_Init(GPIO_TypeDef *GPIOx, LL_GPIO_InitTypeDef *GPIO_InitStruct)
{
 8002ab0:	b5f7      	push	{r0, r1, r2, r4, r5, r6, r7, lr}
  uint32_t pinpos     = 0x00000000U;
 8002ab2:	2300      	movs	r3, #0
{
 8002ab4:	0002      	movs	r2, r0
  /* ------------------------- Configure the port pins ---------------- */
  /* Initialize  pinpos on first pin set */
  /* pinpos = 0; useless as already done in default initialization */

  /* Configure the port pins */
  while (((GPIO_InitStruct->Pin) >> pinpos) != 0x00000000U)
 8002ab6:	680c      	ldr	r4, [r1, #0]
      }

      /* Pin Mode configuration */
      LL_GPIO_SetPinMode(GPIOx, currentpin, GPIO_InitStruct->Mode);
    }
    pinpos++;
 8002ab8:	9300      	str	r3, [sp, #0]
  while (((GPIO_InitStruct->Pin) >> pinpos) != 0x00000000U)
 8002aba:	0020      	movs	r0, r4
 8002abc:	9b00      	ldr	r3, [sp, #0]
 8002abe:	40d8      	lsrs	r0, r3
 8002ac0:	d100      	bne.n	8002ac4 <LL_GPIO_Init+0x14>
  }


  return (SUCCESS);
}
 8002ac2:	bdfe      	pop	{r1, r2, r3, r4, r5, r6, r7, pc}
    currentpin = (GPIO_InitStruct->Pin) & (0x00000001U << pinpos);
 8002ac4:	2001      	movs	r0, #1
 8002ac6:	9b00      	ldr	r3, [sp, #0]
 8002ac8:	4098      	lsls	r0, r3
 8002aca:	0023      	movs	r3, r4
 8002acc:	4003      	ands	r3, r0
    if (currentpin)
 8002ace:	4204      	tst	r4, r0
 8002ad0:	d031      	beq.n	8002b36 <LL_GPIO_Init+0x86>
      if ((GPIO_InitStruct->Mode == LL_GPIO_MODE_OUTPUT) || (GPIO_InitStruct->Mode == LL_GPIO_MODE_ALTERNATE))
 8002ad2:	6848      	ldr	r0, [r1, #4]
 8002ad4:	2503      	movs	r5, #3
 8002ad6:	9001      	str	r0, [sp, #4]
 8002ad8:	0018      	movs	r0, r3
 8002ada:	4358      	muls	r0, r3
 8002adc:	4345      	muls	r5, r0
 8002ade:	9e01      	ldr	r6, [sp, #4]
 8002ae0:	43ed      	mvns	r5, r5
 8002ae2:	1e77      	subs	r7, r6, #1
 8002ae4:	2f01      	cmp	r7, #1
 8002ae6:	d80b      	bhi.n	8002b00 <LL_GPIO_Init+0x50>
  MODIFY_REG(GPIOx->OSPEEDR, ((Pin * Pin) * GPIO_OSPEEDER_OSPEED0), ((Pin * Pin) * Speed));
 8002ae8:	688f      	ldr	r7, [r1, #8]
 8002aea:	6896      	ldr	r6, [r2, #8]
 8002aec:	4347      	muls	r7, r0
 8002aee:	402e      	ands	r6, r5
 8002af0:	4337      	orrs	r7, r6
 8002af2:	6097      	str	r7, [r2, #8]
  MODIFY_REG(GPIOx->OTYPER, PinMask, (PinMask * OutputType));
 8002af4:	6857      	ldr	r7, [r2, #4]
 8002af6:	68ce      	ldr	r6, [r1, #12]
 8002af8:	43a7      	bics	r7, r4
 8002afa:	4374      	muls	r4, r6
 8002afc:	433c      	orrs	r4, r7
 8002afe:	6054      	str	r4, [r2, #4]
  MODIFY_REG(GPIOx->PUPDR, ((Pin * Pin) * GPIO_PUPDR_PUPD0), ((Pin * Pin) * Pull));
 8002b00:	690c      	ldr	r4, [r1, #16]
 8002b02:	68d7      	ldr	r7, [r2, #12]
 8002b04:	4344      	muls	r4, r0
 8002b06:	402f      	ands	r7, r5
 8002b08:	433c      	orrs	r4, r7
 8002b0a:	60d4      	str	r4, [r2, #12]
      if (GPIO_InitStruct->Mode == LL_GPIO_MODE_ALTERNATE)
 8002b0c:	9c01      	ldr	r4, [sp, #4]
 8002b0e:	2c02      	cmp	r4, #2
 8002b10:	d10b      	bne.n	8002b2a <LL_GPIO_Init+0x7a>
        if (currentpin < LL_GPIO_PIN_8)
 8002b12:	694f      	ldr	r7, [r1, #20]
 8002b14:	2bff      	cmp	r3, #255	; 0xff
 8002b16:	d811      	bhi.n	8002b3c <LL_GPIO_Init+0x8c>
  MODIFY_REG(GPIOx->AFR[0], ((((Pin * Pin) * Pin) * Pin) * GPIO_AFRL_AFSEL0),
 8002b18:	0003      	movs	r3, r0
 8002b1a:	260f      	movs	r6, #15
 8002b1c:	4343      	muls	r3, r0
 8002b1e:	435e      	muls	r6, r3
 8002b20:	437b      	muls	r3, r7
 8002b22:	6a14      	ldr	r4, [r2, #32]
 8002b24:	43b4      	bics	r4, r6
 8002b26:	431c      	orrs	r4, r3
 8002b28:	6214      	str	r4, [r2, #32]
  MODIFY_REG(GPIOx->MODER, ((Pin * Pin) * GPIO_MODER_MODE0), ((Pin * Pin) * Mode));
 8002b2a:	6813      	ldr	r3, [r2, #0]
 8002b2c:	401d      	ands	r5, r3
 8002b2e:	9b01      	ldr	r3, [sp, #4]
 8002b30:	4358      	muls	r0, r3
 8002b32:	4305      	orrs	r5, r0
 8002b34:	6015      	str	r5, [r2, #0]
    pinpos++;
 8002b36:	9b00      	ldr	r3, [sp, #0]
 8002b38:	3301      	adds	r3, #1
 8002b3a:	e7bc      	b.n	8002ab6 <LL_GPIO_Init+0x6>
  MODIFY_REG(GPIOx->AFR[1], (((((Pin >> 8U) * (Pin >> 8U)) * (Pin >> 8U)) * (Pin >> 8U)) * GPIO_AFRH_AFSEL8),
 8002b3c:	260f      	movs	r6, #15
 8002b3e:	0a1b      	lsrs	r3, r3, #8
 8002b40:	435b      	muls	r3, r3
 8002b42:	435b      	muls	r3, r3
 8002b44:	435e      	muls	r6, r3
 8002b46:	437b      	muls	r3, r7
 8002b48:	6a54      	ldr	r4, [r2, #36]	; 0x24
 8002b4a:	43b4      	bics	r4, r6
 8002b4c:	431c      	orrs	r4, r3
 8002b4e:	6254      	str	r4, [r2, #36]	; 0x24
}
 8002b50:	e7eb      	b.n	8002b2a <LL_GPIO_Init+0x7a>
	...

08002b54 <LL_RCC_HSI_IsReady>:
  * @rmtoll CR           HSIRDY        LL_RCC_HSI_IsReady
  * @retval State of bit (1 or 0).
  */
__STATIC_INLINE uint32_t LL_RCC_HSI_IsReady(void)
{
  return ((READ_BIT(RCC->CR, RCC_CR_HSIRDY) == RCC_CR_HSIRDY) ? 1UL : 0UL);
 8002b54:	4b02      	ldr	r3, [pc, #8]	; (8002b60 <LL_RCC_HSI_IsReady+0xc>)
 8002b56:	6818      	ldr	r0, [r3, #0]
 8002b58:	0740      	lsls	r0, r0, #29
 8002b5a:	0fc0      	lsrs	r0, r0, #31
}
 8002b5c:	4770      	bx	lr
 8002b5e:	46c0      	nop			; (mov r8, r8)
 8002b60:	40021000 	.word	0x40021000

08002b64 <LL_RCC_IsActiveFlag_HSIDIV>:
  * @rmtoll CR        HSIDIVF        LL_RCC_IsActiveFlag_HSIDIV
  * @retval State of bit (1 or 0).
  */
__STATIC_INLINE uint32_t LL_RCC_IsActiveFlag_HSIDIV(void)
{
  return ((READ_BIT(RCC->CR, RCC_CR_HSIDIVF) == RCC_CR_HSIDIVF) ? 1UL : 0UL);
 8002b64:	4b02      	ldr	r3, [pc, #8]	; (8002b70 <LL_RCC_IsActiveFlag_HSIDIV+0xc>)
 8002b66:	6818      	ldr	r0, [r3, #0]
 8002b68:	06c0      	lsls	r0, r0, #27
 8002b6a:	0fc0      	lsrs	r0, r0, #31
}
 8002b6c:	4770      	bx	lr
 8002b6e:	46c0      	nop			; (mov r8, r8)
 8002b70:	40021000 	.word	0x40021000

08002b74 <RCC_GetHCLKClockFreq>:
  return (uint32_t)(READ_BIT(RCC->CFGR, RCC_CFGR_HPRE));
 8002b74:	4b03      	ldr	r3, [pc, #12]	; (8002b84 <RCC_GetHCLKClockFreq+0x10>)
  * @retval HCLK clock frequency (in Hz)
  */
uint32_t RCC_GetHCLKClockFreq(uint32_t SYSCLK_Frequency)
{
  /* HCLK clock frequency */
  return __LL_RCC_CALC_HCLK_FREQ(SYSCLK_Frequency, LL_RCC_GetAHBPrescaler());
 8002b76:	4a04      	ldr	r2, [pc, #16]	; (8002b88 <RCC_GetHCLKClockFreq+0x14>)
 8002b78:	68db      	ldr	r3, [r3, #12]
 8002b7a:	061b      	lsls	r3, r3, #24
 8002b7c:	0f1b      	lsrs	r3, r3, #28
 8002b7e:	5cd3      	ldrb	r3, [r2, r3]
 8002b80:	40d8      	lsrs	r0, r3
}
 8002b82:	4770      	bx	lr
 8002b84:	40021000 	.word	0x40021000
 8002b88:	080036f2 	.word	0x080036f2

08002b8c <RCC_GetPCLK1ClockFreq>:
  return (uint32_t)(READ_BIT(RCC->CFGR, RCC_CFGR_PPRE1));
 8002b8c:	4b03      	ldr	r3, [pc, #12]	; (8002b9c <RCC_GetPCLK1ClockFreq+0x10>)
  * @retval PCLK1 clock frequency (in Hz)
  */
uint32_t RCC_GetPCLK1ClockFreq(uint32_t HCLK_Frequency)
{
  /* PCLK1 clock frequency */
  return __LL_RCC_CALC_PCLK1_FREQ(HCLK_Frequency, LL_RCC_GetAPB1Prescaler());
 8002b8e:	4a04      	ldr	r2, [pc, #16]	; (8002ba0 <RCC_GetPCLK1ClockFreq+0x14>)
 8002b90:	68db      	ldr	r3, [r3, #12]
 8002b92:	055b      	lsls	r3, r3, #21
 8002b94:	0f5b      	lsrs	r3, r3, #29
 8002b96:	5cd3      	ldrb	r3, [r2, r3]
 8002b98:	40d8      	lsrs	r0, r3
}
 8002b9a:	4770      	bx	lr
 8002b9c:	40021000 	.word	0x40021000
 8002ba0:	08003702 	.word	0x08003702

08002ba4 <RCC_PLL_GetFreqDomain_SYS>:
/**
  * @brief  Return PLL clock frequency used for system domain
  * @retval PLL clock frequency (in Hz)
  */
uint32_t RCC_PLL_GetFreqDomain_SYS(void)
{
 8002ba4:	b510      	push	{r4, lr}
  return (uint32_t)(READ_BIT(RCC->CFGR, RCC_CFGR_PLLSRC));
 8002ba6:	4c0e      	ldr	r4, [pc, #56]	; (8002be0 <RCC_PLL_GetFreqDomain_SYS+0x3c>)
 8002ba8:	68e3      	ldr	r3, [r4, #12]
  /* PLL_VCO = (HSE_VALUE or HSI_VALUE / PLL divider) * PLL Multiplicator */

  /* Get PLL source */
  pllsource = LL_RCC_PLL_GetMainSource();

  switch (pllsource)
 8002baa:	03db      	lsls	r3, r3, #15
 8002bac:	d415      	bmi.n	8002bda <RCC_PLL_GetFreqDomain_SYS+0x36>
  {
    case LL_RCC_PLLSOURCE_HSI:       /* HSI used as PLL clock source */
      if (LL_RCC_IsActiveFlag_HSIDIV() != 0U)
 8002bae:	f7ff ffd9 	bl	8002b64 <LL_RCC_IsActiveFlag_HSIDIV>
      {
        pllinputfreq = (HSI_VALUE >> 2U);
      }
      else
      {
        pllinputfreq = HSI_VALUE;
 8002bb2:	1e43      	subs	r3, r0, #1
 8002bb4:	4198      	sbcs	r0, r3
 8002bb6:	4b0b      	ldr	r3, [pc, #44]	; (8002be4 <RCC_PLL_GetFreqDomain_SYS+0x40>)
 8002bb8:	4240      	negs	r0, r0
 8002bba:	4018      	ands	r0, r3
 8002bbc:	4b0a      	ldr	r3, [pc, #40]	; (8002be8 <RCC_PLL_GetFreqDomain_SYS+0x44>)
 8002bbe:	18c0      	adds	r0, r0, r3
  return (uint32_t)(READ_BIT(RCC->CFGR, RCC_CFGR_PLLMUL));
 8002bc0:	68e3      	ldr	r3, [r4, #12]

    default:       /* HSE used as PLL clock source */
      pllinputfreq = HSE_VALUE;
      break;
  }
  return __LL_RCC_CALC_PLLCLK_FREQ(pllinputfreq, LL_RCC_PLL_GetMultiplicator(), LL_RCC_PLL_GetDivider());
 8002bc2:	4a0a      	ldr	r2, [pc, #40]	; (8002bec <RCC_PLL_GetFreqDomain_SYS+0x48>)
  return (uint32_t)(READ_BIT(RCC->CFGR, RCC_CFGR_PLLDIV));
 8002bc4:	68e1      	ldr	r1, [r4, #12]
 8002bc6:	029b      	lsls	r3, r3, #10
 8002bc8:	0f1b      	lsrs	r3, r3, #28
 8002bca:	5cd3      	ldrb	r3, [r2, r3]
 8002bcc:	0209      	lsls	r1, r1, #8
 8002bce:	0f89      	lsrs	r1, r1, #30
 8002bd0:	4358      	muls	r0, r3
 8002bd2:	3101      	adds	r1, #1
 8002bd4:	f7fd faac 	bl	8000130 <__udivsi3>
}
 8002bd8:	bd10      	pop	{r4, pc}
      pllinputfreq = HSE_VALUE;
 8002bda:	4805      	ldr	r0, [pc, #20]	; (8002bf0 <RCC_PLL_GetFreqDomain_SYS+0x4c>)
 8002bdc:	e7f0      	b.n	8002bc0 <RCC_PLL_GetFreqDomain_SYS+0x1c>
 8002bde:	46c0      	nop			; (mov r8, r8)
 8002be0:	40021000 	.word	0x40021000
 8002be4:	ff48e500 	.word	0xff48e500
 8002be8:	00f42400 	.word	0x00f42400
 8002bec:	0800370a 	.word	0x0800370a
 8002bf0:	007a1200 	.word	0x007a1200

08002bf4 <RCC_GetSystemClockFreq>:
  return (uint32_t)(READ_BIT(RCC->CFGR, RCC_CFGR_SWS));
 8002bf4:	210c      	movs	r1, #12
 8002bf6:	4a13      	ldr	r2, [pc, #76]	; (8002c44 <RCC_GetSystemClockFreq+0x50>)
{
 8002bf8:	b510      	push	{r4, lr}
 8002bfa:	68d3      	ldr	r3, [r2, #12]
 8002bfc:	400b      	ands	r3, r1
 8002bfe:	0011      	movs	r1, r2
  switch (LL_RCC_GetSysClkSource())
 8002c00:	2b08      	cmp	r3, #8
 8002c02:	d01d      	beq.n	8002c40 <RCC_GetSystemClockFreq+0x4c>
 8002c04:	d805      	bhi.n	8002c12 <RCC_GetSystemClockFreq+0x1e>
 8002c06:	2b00      	cmp	r3, #0
 8002c08:	d008      	beq.n	8002c1c <RCC_GetSystemClockFreq+0x28>
 8002c0a:	2b04      	cmp	r3, #4
 8002c0c:	d00e      	beq.n	8002c2c <RCC_GetSystemClockFreq+0x38>
  return (uint32_t)(READ_BIT(RCC->ICSCR, RCC_ICSCR_MSIRANGE));
 8002c0e:	684b      	ldr	r3, [r1, #4]
 8002c10:	e005      	b.n	8002c1e <RCC_GetSystemClockFreq+0x2a>
 8002c12:	2b0c      	cmp	r3, #12
 8002c14:	d1fb      	bne.n	8002c0e <RCC_GetSystemClockFreq+0x1a>
      frequency = RCC_PLL_GetFreqDomain_SYS();
 8002c16:	f7ff ffc5 	bl	8002ba4 <RCC_PLL_GetFreqDomain_SYS>
      break;
 8002c1a:	e010      	b.n	8002c3e <RCC_GetSystemClockFreq+0x4a>
 8002c1c:	6853      	ldr	r3, [r2, #4]
      frequency = __LL_RCC_CALC_MSI_FREQ(LL_RCC_MSI_GetRange());
 8002c1e:	2080      	movs	r0, #128	; 0x80
 8002c20:	041b      	lsls	r3, r3, #16
 8002c22:	0f5b      	lsrs	r3, r3, #29
 8002c24:	3301      	adds	r3, #1
 8002c26:	0200      	lsls	r0, r0, #8
 8002c28:	4098      	lsls	r0, r3
  return frequency;
 8002c2a:	e008      	b.n	8002c3e <RCC_GetSystemClockFreq+0x4a>
      if (LL_RCC_IsActiveFlag_HSIDIV() != 0U)
 8002c2c:	f7ff ff9a 	bl	8002b64 <LL_RCC_IsActiveFlag_HSIDIV>
        frequency = HSI_VALUE;
 8002c30:	1e43      	subs	r3, r0, #1
 8002c32:	4198      	sbcs	r0, r3
 8002c34:	4b04      	ldr	r3, [pc, #16]	; (8002c48 <RCC_GetSystemClockFreq+0x54>)
 8002c36:	4240      	negs	r0, r0
 8002c38:	4018      	ands	r0, r3
 8002c3a:	4b04      	ldr	r3, [pc, #16]	; (8002c4c <RCC_GetSystemClockFreq+0x58>)
 8002c3c:	18c0      	adds	r0, r0, r3
}
 8002c3e:	bd10      	pop	{r4, pc}
  switch (LL_RCC_GetSysClkSource())
 8002c40:	4803      	ldr	r0, [pc, #12]	; (8002c50 <RCC_GetSystemClockFreq+0x5c>)
 8002c42:	e7fc      	b.n	8002c3e <RCC_GetSystemClockFreq+0x4a>
 8002c44:	40021000 	.word	0x40021000
 8002c48:	ff48e500 	.word	0xff48e500
 8002c4c:	00f42400 	.word	0x00f42400
 8002c50:	007a1200 	.word	0x007a1200

08002c54 <LL_RCC_GetUSARTClockFreq>:
{
 8002c54:	b510      	push	{r4, lr}
  if (USARTxSource == LL_RCC_USART2_CLKSOURCE)
 8002c56:	280c      	cmp	r0, #12
 8002c58:	d122      	bne.n	8002ca0 <LL_RCC_GetUSARTClockFreq+0x4c>
  return (uint32_t)(READ_BIT(RCC->CCIPR, USARTx) | (USARTx << 16U));
 8002c5a:	4a17      	ldr	r2, [pc, #92]	; (8002cb8 <LL_RCC_GetUSARTClockFreq+0x64>)
 8002c5c:	6cd3      	ldr	r3, [r2, #76]	; 0x4c
 8002c5e:	4003      	ands	r3, r0
 8002c60:	20c0      	movs	r0, #192	; 0xc0
 8002c62:	0300      	lsls	r0, r0, #12
 8002c64:	4318      	orrs	r0, r3
    switch (LL_RCC_GetUSARTClockSource(USARTxSource))
 8002c66:	4b15      	ldr	r3, [pc, #84]	; (8002cbc <LL_RCC_GetUSARTClockFreq+0x68>)
 8002c68:	4298      	cmp	r0, r3
 8002c6a:	d008      	beq.n	8002c7e <LL_RCC_GetUSARTClockFreq+0x2a>
 8002c6c:	4b14      	ldr	r3, [pc, #80]	; (8002cc0 <LL_RCC_GetUSARTClockFreq+0x6c>)
 8002c6e:	4298      	cmp	r0, r3
 8002c70:	d013      	beq.n	8002c9a <LL_RCC_GetUSARTClockFreq+0x46>
 8002c72:	4b14      	ldr	r3, [pc, #80]	; (8002cc4 <LL_RCC_GetUSARTClockFreq+0x70>)
 8002c74:	4298      	cmp	r0, r3
 8002c76:	d115      	bne.n	8002ca4 <LL_RCC_GetUSARTClockFreq+0x50>
        usart_frequency = RCC_GetSystemClockFreq();
 8002c78:	f7ff ffbc 	bl	8002bf4 <RCC_GetSystemClockFreq>
}
 8002c7c:	bd10      	pop	{r4, pc}
        if (LL_RCC_HSI_IsReady() != 0U)
 8002c7e:	f7ff ff69 	bl	8002b54 <LL_RCC_HSI_IsReady>
 8002c82:	2800      	cmp	r0, #0
 8002c84:	d00c      	beq.n	8002ca0 <LL_RCC_GetUSARTClockFreq+0x4c>
          if (LL_RCC_IsActiveFlag_HSIDIV() != 0U)
 8002c86:	f7ff ff6d 	bl	8002b64 <LL_RCC_IsActiveFlag_HSIDIV>
            usart_frequency = HSI_VALUE;
 8002c8a:	1e43      	subs	r3, r0, #1
 8002c8c:	4198      	sbcs	r0, r3
 8002c8e:	4b0e      	ldr	r3, [pc, #56]	; (8002cc8 <LL_RCC_GetUSARTClockFreq+0x74>)
 8002c90:	4240      	negs	r0, r0
 8002c92:	4018      	ands	r0, r3
 8002c94:	4b0d      	ldr	r3, [pc, #52]	; (8002ccc <LL_RCC_GetUSARTClockFreq+0x78>)
 8002c96:	18c0      	adds	r0, r0, r3
 8002c98:	e7f0      	b.n	8002c7c <LL_RCC_GetUSARTClockFreq+0x28>
  return ((READ_BIT(RCC->CSR, RCC_CSR_LSERDY) == RCC_CSR_LSERDY) ? 1UL : 0UL);
 8002c9a:	6d13      	ldr	r3, [r2, #80]	; 0x50
 8002c9c:	059b      	lsls	r3, r3, #22
 8002c9e:	d408      	bmi.n	8002cb2 <LL_RCC_GetUSARTClockFreq+0x5e>
  uint32_t usart_frequency = LL_RCC_PERIPH_FREQUENCY_NO;
 8002ca0:	2000      	movs	r0, #0
 8002ca2:	e7eb      	b.n	8002c7c <LL_RCC_GetUSARTClockFreq+0x28>
        usart_frequency = RCC_GetPCLK1ClockFreq(RCC_GetHCLKClockFreq(RCC_GetSystemClockFreq()));
 8002ca4:	f7ff ffa6 	bl	8002bf4 <RCC_GetSystemClockFreq>
 8002ca8:	f7ff ff64 	bl	8002b74 <RCC_GetHCLKClockFreq>
 8002cac:	f7ff ff6e 	bl	8002b8c <RCC_GetPCLK1ClockFreq>
        break;
 8002cb0:	e7e4      	b.n	8002c7c <LL_RCC_GetUSARTClockFreq+0x28>
          usart_frequency = LSE_VALUE;
 8002cb2:	2080      	movs	r0, #128	; 0x80
 8002cb4:	0200      	lsls	r0, r0, #8
  return usart_frequency;
 8002cb6:	e7e1      	b.n	8002c7c <LL_RCC_GetUSARTClockFreq+0x28>
 8002cb8:	40021000 	.word	0x40021000
 8002cbc:	000c0008 	.word	0x000c0008
 8002cc0:	000c000c 	.word	0x000c000c
 8002cc4:	000c0004 	.word	0x000c0004
 8002cc8:	ff48e500 	.word	0xff48e500
 8002ccc:	00f42400 	.word	0x00f42400

08002cd0 <LL_TIM_Init>:
  assert_param(IS_LL_TIM_COUNTERMODE(TIM_InitStruct->CounterMode));
  assert_param(IS_LL_TIM_CLOCKDIVISION(TIM_InitStruct->ClockDivision));

  tmpcr1 = LL_TIM_ReadReg(TIMx, CR1);

  if (IS_TIM_COUNTER_MODE_SELECT_INSTANCE(TIMx))
 8002cd0:	2280      	movs	r2, #128	; 0x80
{
 8002cd2:	b510      	push	{r4, lr}
  tmpcr1 = LL_TIM_ReadReg(TIMx, CR1);
 8002cd4:	6803      	ldr	r3, [r0, #0]
  if (IS_TIM_COUNTER_MODE_SELECT_INSTANCE(TIMx))
 8002cd6:	05d2      	lsls	r2, r2, #23
 8002cd8:	4290      	cmp	r0, r2
 8002cda:	d002      	beq.n	8002ce2 <LL_TIM_Init+0x12>
 8002cdc:	4c0d      	ldr	r4, [pc, #52]	; (8002d14 <LL_TIM_Init+0x44>)
 8002cde:	42a0      	cmp	r0, r4
 8002ce0:	d10c      	bne.n	8002cfc <LL_TIM_Init+0x2c>
  {
    /* Select the Counter Mode */
    MODIFY_REG(tmpcr1, (TIM_CR1_DIR | TIM_CR1_CMS), TIM_InitStruct->CounterMode);
 8002ce2:	2470      	movs	r4, #112	; 0x70
 8002ce4:	43a3      	bics	r3, r4
 8002ce6:	684c      	ldr	r4, [r1, #4]
 8002ce8:	4323      	orrs	r3, r4
  }

  if (IS_TIM_CLOCK_DIVISION_INSTANCE(TIMx))
 8002cea:	4290      	cmp	r0, r2
 8002cec:	d002      	beq.n	8002cf4 <LL_TIM_Init+0x24>
 8002cee:	4a09      	ldr	r2, [pc, #36]	; (8002d14 <LL_TIM_Init+0x44>)
 8002cf0:	4290      	cmp	r0, r2
 8002cf2:	d103      	bne.n	8002cfc <LL_TIM_Init+0x2c>
  {
    /* Set the clock division */
    MODIFY_REG(tmpcr1, TIM_CR1_CKD, TIM_InitStruct->ClockDivision);
 8002cf4:	4a08      	ldr	r2, [pc, #32]	; (8002d18 <LL_TIM_Init+0x48>)
 8002cf6:	4013      	ands	r3, r2
 8002cf8:	68ca      	ldr	r2, [r1, #12]
 8002cfa:	4313      	orrs	r3, r2
  }

  /* Write to TIMx CR1 */
  LL_TIM_WriteReg(TIMx, CR1, tmpcr1);
 8002cfc:	6003      	str	r3, [r0, #0]
  WRITE_REG(TIMx->ARR, AutoReload);
 8002cfe:	688b      	ldr	r3, [r1, #8]
 8002d00:	62c3      	str	r3, [r0, #44]	; 0x2c

  /* Set the Autoreload value */
  LL_TIM_SetAutoReload(TIMx, TIM_InitStruct->Autoreload);

  /* Set the Prescaler value */
  LL_TIM_SetPrescaler(TIMx, TIM_InitStruct->Prescaler);
 8002d02:	880b      	ldrh	r3, [r1, #0]
  WRITE_REG(TIMx->PSC, Prescaler);
 8002d04:	6283      	str	r3, [r0, #40]	; 0x28
  * @param  TIMx Timer instance
  * @retval None
  */
__STATIC_INLINE void LL_TIM_GenerateEvent_UPDATE(TIM_TypeDef *TIMx)
{
  SET_BIT(TIMx->EGR, TIM_EGR_UG);
 8002d06:	2301      	movs	r3, #1
 8002d08:	6942      	ldr	r2, [r0, #20]
 8002d0a:	4313      	orrs	r3, r2
 8002d0c:	6143      	str	r3, [r0, #20]
  /* Generate an update event to reload the Prescaler
     and the repetition counter value (if applicable) immediately */
  LL_TIM_GenerateEvent_UPDATE(TIMx);

  return SUCCESS;
}
 8002d0e:	2000      	movs	r0, #0
 8002d10:	bd10      	pop	{r4, pc}
 8002d12:	46c0      	nop			; (mov r8, r8)
 8002d14:	40010800 	.word	0x40010800
 8002d18:	fffffcff 	.word	0xfffffcff

08002d1c <LL_USART_Init>:
  return ((READ_BIT(USARTx->CR1, USART_CR1_UE) == (USART_CR1_UE)) ? 1UL : 0UL);
 8002d1c:	6802      	ldr	r2, [r0, #0]
  * @retval An ErrorStatus enumeration value:
  *          - SUCCESS: USART registers are initialized according to USART_InitStruct content
  *          - ERROR: Problem occurred during USART Registers initialization
  */
ErrorStatus LL_USART_Init(USART_TypeDef *USARTx, LL_USART_InitTypeDef *USART_InitStruct)
{
 8002d1e:	b570      	push	{r4, r5, r6, lr}
 8002d20:	2301      	movs	r3, #1
 8002d22:	0015      	movs	r5, r2
 8002d24:	0004      	movs	r4, r0
 8002d26:	000e      	movs	r6, r1
 8002d28:	401d      	ands	r5, r3
  assert_param(IS_LL_USART_HWCONTROL(USART_InitStruct->HardwareFlowControl));
  assert_param(IS_LL_USART_OVERSAMPLING(USART_InitStruct->OverSampling));

  /* USART needs to be in disabled state, in order to be able to configure some bits in
     CRx registers */
  if (LL_USART_IsEnabled(USARTx) == 0U)
 8002d2a:	421a      	tst	r2, r3
 8002d2c:	d001      	beq.n	8002d32 <LL_USART_Init+0x16>
  ErrorStatus status = ERROR;
 8002d2e:	2001      	movs	r0, #1
    }
  }
  /* Endif (=> USART not in Disabled state => return ERROR) */

  return (status);
}
 8002d30:	bd70      	pop	{r4, r5, r6, pc}
    MODIFY_REG(USARTx->CR1,
 8002d32:	684b      	ldr	r3, [r1, #4]
 8002d34:	68c9      	ldr	r1, [r1, #12]
 8002d36:	6802      	ldr	r2, [r0, #0]
 8002d38:	430b      	orrs	r3, r1
 8002d3a:	6931      	ldr	r1, [r6, #16]
 8002d3c:	430b      	orrs	r3, r1
 8002d3e:	69b1      	ldr	r1, [r6, #24]
 8002d40:	430b      	orrs	r3, r1
 8002d42:	4919      	ldr	r1, [pc, #100]	; (8002da8 <LL_USART_Init+0x8c>)
 8002d44:	400a      	ands	r2, r1
 8002d46:	4313      	orrs	r3, r2
 8002d48:	6003      	str	r3, [r0, #0]
  MODIFY_REG(USARTx->CR2, USART_CR2_STOP, StopBits);
 8002d4a:	6843      	ldr	r3, [r0, #4]
 8002d4c:	4a17      	ldr	r2, [pc, #92]	; (8002dac <LL_USART_Init+0x90>)
 8002d4e:	4013      	ands	r3, r2
 8002d50:	68b2      	ldr	r2, [r6, #8]
 8002d52:	4313      	orrs	r3, r2
 8002d54:	6043      	str	r3, [r0, #4]
  MODIFY_REG(USARTx->CR3, USART_CR3_RTSE | USART_CR3_CTSE, HardwareFlowControl);
 8002d56:	6883      	ldr	r3, [r0, #8]
 8002d58:	4a15      	ldr	r2, [pc, #84]	; (8002db0 <LL_USART_Init+0x94>)
 8002d5a:	4013      	ands	r3, r2
 8002d5c:	6972      	ldr	r2, [r6, #20]
 8002d5e:	4313      	orrs	r3, r2
 8002d60:	6083      	str	r3, [r0, #8]
    if (USARTx == USART2)
 8002d62:	4b14      	ldr	r3, [pc, #80]	; (8002db4 <LL_USART_Init+0x98>)
 8002d64:	4298      	cmp	r0, r3
 8002d66:	d1e2      	bne.n	8002d2e <LL_USART_Init+0x12>
      periphclk = LL_RCC_GetUSARTClockFreq(LL_RCC_USART2_CLKSOURCE);
 8002d68:	200c      	movs	r0, #12
 8002d6a:	f7ff ff73 	bl	8002c54 <LL_RCC_GetUSARTClockFreq>
    if ((periphclk != LL_RCC_PERIPH_FREQUENCY_NO)
 8002d6e:	2800      	cmp	r0, #0
 8002d70:	d0dd      	beq.n	8002d2e <LL_USART_Init+0x12>
        && (USART_InitStruct->BaudRate != 0U))
 8002d72:	6831      	ldr	r1, [r6, #0]
 8002d74:	2900      	cmp	r1, #0
 8002d76:	d0da      	beq.n	8002d2e <LL_USART_Init+0x12>
  if (OverSampling == LL_USART_OVERSAMPLING_8)
 8002d78:	2280      	movs	r2, #128	; 0x80
 8002d7a:	69b6      	ldr	r6, [r6, #24]
 8002d7c:	084b      	lsrs	r3, r1, #1
 8002d7e:	0212      	lsls	r2, r2, #8
 8002d80:	4296      	cmp	r6, r2
 8002d82:	d10b      	bne.n	8002d9c <LL_USART_Init+0x80>
    usartdiv = (uint16_t)(__LL_USART_DIV_SAMPLING8(PeriphClk, BaudRate));
 8002d84:	0040      	lsls	r0, r0, #1
 8002d86:	18c0      	adds	r0, r0, r3
 8002d88:	f7fd f9d2 	bl	8000130 <__udivsi3>
    brrtemp = usartdiv & 0xFFF0U;
 8002d8c:	4b0a      	ldr	r3, [pc, #40]	; (8002db8 <LL_USART_Init+0x9c>)
 8002d8e:	4003      	ands	r3, r0
    brrtemp |= (uint16_t)((usartdiv & (uint16_t)0x000FU) >> 1U);
 8002d90:	0700      	lsls	r0, r0, #28
 8002d92:	0f40      	lsrs	r0, r0, #29
 8002d94:	4318      	orrs	r0, r3
    USARTx->BRR = (uint16_t)(__LL_USART_DIV_SAMPLING16(PeriphClk, BaudRate));
 8002d96:	60e0      	str	r0, [r4, #12]
      status = SUCCESS;
 8002d98:	0028      	movs	r0, r5
 8002d9a:	e7c9      	b.n	8002d30 <LL_USART_Init+0x14>
 8002d9c:	18c0      	adds	r0, r0, r3
 8002d9e:	f7fd f9c7 	bl	8000130 <__udivsi3>
 8002da2:	b280      	uxth	r0, r0
 8002da4:	e7f7      	b.n	8002d96 <LL_USART_Init+0x7a>
 8002da6:	46c0      	nop			; (mov r8, r8)
 8002da8:	efff69f3 	.word	0xefff69f3
 8002dac:	ffffcfff 	.word	0xffffcfff
 8002db0:	fffffcff 	.word	0xfffffcff
 8002db4:	40004400 	.word	0x40004400
 8002db8:	0000fff0 	.word	0x0000fff0

08002dbc <LL_mDelay>:
  * @param  Delay specifies the delay time length, in milliseconds.
  * @retval None
  */
void LL_mDelay(uint32_t Delay)
{
  __IO uint32_t  tmp = SysTick->CTRL;  /* Clear the COUNTFLAG first */
 8002dbc:	4b09      	ldr	r3, [pc, #36]	; (8002de4 <LL_mDelay+0x28>)
{
 8002dbe:	b082      	sub	sp, #8
  __IO uint32_t  tmp = SysTick->CTRL;  /* Clear the COUNTFLAG first */
 8002dc0:	681a      	ldr	r2, [r3, #0]
 8002dc2:	9201      	str	r2, [sp, #4]
  /* Add this code to indicate that local variable is not used */
  ((void)tmp);
 8002dc4:	9a01      	ldr	r2, [sp, #4]

  /* Add a period to guaranty minimum wait */
  if (Delay < LL_MAX_DELAY)
  {
    Delay++;
 8002dc6:	1c42      	adds	r2, r0, #1
 8002dc8:	1e51      	subs	r1, r2, #1
 8002dca:	418a      	sbcs	r2, r1
 8002dcc:	1880      	adds	r0, r0, r2
  }

  while (Delay)
  {
    if ((SysTick->CTRL & SysTick_CTRL_COUNTFLAG_Msk) != 0U)
 8002dce:	2280      	movs	r2, #128	; 0x80
 8002dd0:	0252      	lsls	r2, r2, #9
  while (Delay)
 8002dd2:	2800      	cmp	r0, #0
 8002dd4:	d101      	bne.n	8002dda <LL_mDelay+0x1e>
    {
      Delay--;
    }
  }
}
 8002dd6:	b002      	add	sp, #8
 8002dd8:	4770      	bx	lr
    if ((SysTick->CTRL & SysTick_CTRL_COUNTFLAG_Msk) != 0U)
 8002dda:	6819      	ldr	r1, [r3, #0]
 8002ddc:	4211      	tst	r1, r2
 8002dde:	d0f8      	beq.n	8002dd2 <LL_mDelay+0x16>
      Delay--;
 8002de0:	3801      	subs	r0, #1
 8002de2:	e7f6      	b.n	8002dd2 <LL_mDelay+0x16>
 8002de4:	e000e010 	.word	0xe000e010

08002de8 <__errno>:
 8002de8:	4b01      	ldr	r3, [pc, #4]	; (8002df0 <__errno+0x8>)
 8002dea:	6818      	ldr	r0, [r3, #0]
 8002dec:	4770      	bx	lr
 8002dee:	46c0      	nop			; (mov r8, r8)
 8002df0:	20000010 	.word	0x20000010

08002df4 <__libc_init_array>:
 8002df4:	b570      	push	{r4, r5, r6, lr}
 8002df6:	2600      	movs	r6, #0
 8002df8:	4d0c      	ldr	r5, [pc, #48]	; (8002e2c <__libc_init_array+0x38>)
 8002dfa:	4c0d      	ldr	r4, [pc, #52]	; (8002e30 <__libc_init_array+0x3c>)
 8002dfc:	1b64      	subs	r4, r4, r5
 8002dfe:	10a4      	asrs	r4, r4, #2
 8002e00:	42a6      	cmp	r6, r4
 8002e02:	d109      	bne.n	8002e18 <__libc_init_array+0x24>
 8002e04:	2600      	movs	r6, #0
 8002e06:	f000 fc47 	bl	8003698 <_init>
 8002e0a:	4d0a      	ldr	r5, [pc, #40]	; (8002e34 <__libc_init_array+0x40>)
 8002e0c:	4c0a      	ldr	r4, [pc, #40]	; (8002e38 <__libc_init_array+0x44>)
 8002e0e:	1b64      	subs	r4, r4, r5
 8002e10:	10a4      	asrs	r4, r4, #2
 8002e12:	42a6      	cmp	r6, r4
 8002e14:	d105      	bne.n	8002e22 <__libc_init_array+0x2e>
 8002e16:	bd70      	pop	{r4, r5, r6, pc}
 8002e18:	00b3      	lsls	r3, r6, #2
 8002e1a:	58eb      	ldr	r3, [r5, r3]
 8002e1c:	4798      	blx	r3
 8002e1e:	3601      	adds	r6, #1
 8002e20:	e7ee      	b.n	8002e00 <__libc_init_array+0xc>
 8002e22:	00b3      	lsls	r3, r6, #2
 8002e24:	58eb      	ldr	r3, [r5, r3]
 8002e26:	4798      	blx	r3
 8002e28:	3601      	adds	r6, #1
 8002e2a:	e7f2      	b.n	8002e12 <__libc_init_array+0x1e>
 8002e2c:	08003750 	.word	0x08003750
 8002e30:	08003750 	.word	0x08003750
 8002e34:	08003750 	.word	0x08003750
 8002e38:	08003754 	.word	0x08003754

08002e3c <memset>:
 8002e3c:	0003      	movs	r3, r0
 8002e3e:	1882      	adds	r2, r0, r2
 8002e40:	4293      	cmp	r3, r2
 8002e42:	d100      	bne.n	8002e46 <memset+0xa>
 8002e44:	4770      	bx	lr
 8002e46:	7019      	strb	r1, [r3, #0]
 8002e48:	3301      	adds	r3, #1
 8002e4a:	e7f9      	b.n	8002e40 <memset+0x4>

08002e4c <siprintf>:
 8002e4c:	b40e      	push	{r1, r2, r3}
 8002e4e:	b500      	push	{lr}
 8002e50:	490b      	ldr	r1, [pc, #44]	; (8002e80 <siprintf+0x34>)
 8002e52:	b09c      	sub	sp, #112	; 0x70
 8002e54:	ab1d      	add	r3, sp, #116	; 0x74
 8002e56:	9002      	str	r0, [sp, #8]
 8002e58:	9006      	str	r0, [sp, #24]
 8002e5a:	9107      	str	r1, [sp, #28]
 8002e5c:	9104      	str	r1, [sp, #16]
 8002e5e:	4809      	ldr	r0, [pc, #36]	; (8002e84 <siprintf+0x38>)
 8002e60:	4909      	ldr	r1, [pc, #36]	; (8002e88 <siprintf+0x3c>)
 8002e62:	cb04      	ldmia	r3!, {r2}
 8002e64:	9105      	str	r1, [sp, #20]
 8002e66:	6800      	ldr	r0, [r0, #0]
 8002e68:	a902      	add	r1, sp, #8
 8002e6a:	9301      	str	r3, [sp, #4]
 8002e6c:	f000 f870 	bl	8002f50 <_svfiprintf_r>
 8002e70:	2300      	movs	r3, #0
 8002e72:	9a02      	ldr	r2, [sp, #8]
 8002e74:	7013      	strb	r3, [r2, #0]
 8002e76:	b01c      	add	sp, #112	; 0x70
 8002e78:	bc08      	pop	{r3}
 8002e7a:	b003      	add	sp, #12
 8002e7c:	4718      	bx	r3
 8002e7e:	46c0      	nop			; (mov r8, r8)
 8002e80:	7fffffff 	.word	0x7fffffff
 8002e84:	20000010 	.word	0x20000010
 8002e88:	ffff0208 	.word	0xffff0208

08002e8c <__ssputs_r>:
 8002e8c:	b5f0      	push	{r4, r5, r6, r7, lr}
 8002e8e:	688e      	ldr	r6, [r1, #8]
 8002e90:	b085      	sub	sp, #20
 8002e92:	0007      	movs	r7, r0
 8002e94:	000c      	movs	r4, r1
 8002e96:	9203      	str	r2, [sp, #12]
 8002e98:	9301      	str	r3, [sp, #4]
 8002e9a:	429e      	cmp	r6, r3
 8002e9c:	d83c      	bhi.n	8002f18 <__ssputs_r+0x8c>
 8002e9e:	2390      	movs	r3, #144	; 0x90
 8002ea0:	898a      	ldrh	r2, [r1, #12]
 8002ea2:	00db      	lsls	r3, r3, #3
 8002ea4:	421a      	tst	r2, r3
 8002ea6:	d034      	beq.n	8002f12 <__ssputs_r+0x86>
 8002ea8:	2503      	movs	r5, #3
 8002eaa:	6909      	ldr	r1, [r1, #16]
 8002eac:	6823      	ldr	r3, [r4, #0]
 8002eae:	1a5b      	subs	r3, r3, r1
 8002eb0:	9302      	str	r3, [sp, #8]
 8002eb2:	6963      	ldr	r3, [r4, #20]
 8002eb4:	9802      	ldr	r0, [sp, #8]
 8002eb6:	435d      	muls	r5, r3
 8002eb8:	0feb      	lsrs	r3, r5, #31
 8002eba:	195d      	adds	r5, r3, r5
 8002ebc:	9b01      	ldr	r3, [sp, #4]
 8002ebe:	106d      	asrs	r5, r5, #1
 8002ec0:	3301      	adds	r3, #1
 8002ec2:	181b      	adds	r3, r3, r0
 8002ec4:	42ab      	cmp	r3, r5
 8002ec6:	d900      	bls.n	8002eca <__ssputs_r+0x3e>
 8002ec8:	001d      	movs	r5, r3
 8002eca:	0553      	lsls	r3, r2, #21
 8002ecc:	d532      	bpl.n	8002f34 <__ssputs_r+0xa8>
 8002ece:	0029      	movs	r1, r5
 8002ed0:	0038      	movs	r0, r7
 8002ed2:	f000 fb31 	bl	8003538 <_malloc_r>
 8002ed6:	1e06      	subs	r6, r0, #0
 8002ed8:	d109      	bne.n	8002eee <__ssputs_r+0x62>
 8002eda:	230c      	movs	r3, #12
 8002edc:	603b      	str	r3, [r7, #0]
 8002ede:	2340      	movs	r3, #64	; 0x40
 8002ee0:	2001      	movs	r0, #1
 8002ee2:	89a2      	ldrh	r2, [r4, #12]
 8002ee4:	4240      	negs	r0, r0
 8002ee6:	4313      	orrs	r3, r2
 8002ee8:	81a3      	strh	r3, [r4, #12]
 8002eea:	b005      	add	sp, #20
 8002eec:	bdf0      	pop	{r4, r5, r6, r7, pc}
 8002eee:	9a02      	ldr	r2, [sp, #8]
 8002ef0:	6921      	ldr	r1, [r4, #16]
 8002ef2:	f000 faba 	bl	800346a <memcpy>
 8002ef6:	89a3      	ldrh	r3, [r4, #12]
 8002ef8:	4a14      	ldr	r2, [pc, #80]	; (8002f4c <__ssputs_r+0xc0>)
 8002efa:	401a      	ands	r2, r3
 8002efc:	2380      	movs	r3, #128	; 0x80
 8002efe:	4313      	orrs	r3, r2
 8002f00:	81a3      	strh	r3, [r4, #12]
 8002f02:	9b02      	ldr	r3, [sp, #8]
 8002f04:	6126      	str	r6, [r4, #16]
 8002f06:	18f6      	adds	r6, r6, r3
 8002f08:	6026      	str	r6, [r4, #0]
 8002f0a:	6165      	str	r5, [r4, #20]
 8002f0c:	9e01      	ldr	r6, [sp, #4]
 8002f0e:	1aed      	subs	r5, r5, r3
 8002f10:	60a5      	str	r5, [r4, #8]
 8002f12:	9b01      	ldr	r3, [sp, #4]
 8002f14:	429e      	cmp	r6, r3
 8002f16:	d900      	bls.n	8002f1a <__ssputs_r+0x8e>
 8002f18:	9e01      	ldr	r6, [sp, #4]
 8002f1a:	0032      	movs	r2, r6
 8002f1c:	9903      	ldr	r1, [sp, #12]
 8002f1e:	6820      	ldr	r0, [r4, #0]
 8002f20:	f000 faac 	bl	800347c <memmove>
 8002f24:	68a3      	ldr	r3, [r4, #8]
 8002f26:	2000      	movs	r0, #0
 8002f28:	1b9b      	subs	r3, r3, r6
 8002f2a:	60a3      	str	r3, [r4, #8]
 8002f2c:	6823      	ldr	r3, [r4, #0]
 8002f2e:	199e      	adds	r6, r3, r6
 8002f30:	6026      	str	r6, [r4, #0]
 8002f32:	e7da      	b.n	8002eea <__ssputs_r+0x5e>
 8002f34:	002a      	movs	r2, r5
 8002f36:	0038      	movs	r0, r7
 8002f38:	f000 fb5c 	bl	80035f4 <_realloc_r>
 8002f3c:	1e06      	subs	r6, r0, #0
 8002f3e:	d1e0      	bne.n	8002f02 <__ssputs_r+0x76>
 8002f40:	0038      	movs	r0, r7
 8002f42:	6921      	ldr	r1, [r4, #16]
 8002f44:	f000 faae 	bl	80034a4 <_free_r>
 8002f48:	e7c7      	b.n	8002eda <__ssputs_r+0x4e>
 8002f4a:	46c0      	nop			; (mov r8, r8)
 8002f4c:	fffffb7f 	.word	0xfffffb7f

08002f50 <_svfiprintf_r>:
 8002f50:	b5f0      	push	{r4, r5, r6, r7, lr}
 8002f52:	b0a1      	sub	sp, #132	; 0x84
 8002f54:	9003      	str	r0, [sp, #12]
 8002f56:	001d      	movs	r5, r3
 8002f58:	898b      	ldrh	r3, [r1, #12]
 8002f5a:	000f      	movs	r7, r1
 8002f5c:	0016      	movs	r6, r2
 8002f5e:	061b      	lsls	r3, r3, #24
 8002f60:	d511      	bpl.n	8002f86 <_svfiprintf_r+0x36>
 8002f62:	690b      	ldr	r3, [r1, #16]
 8002f64:	2b00      	cmp	r3, #0
 8002f66:	d10e      	bne.n	8002f86 <_svfiprintf_r+0x36>
 8002f68:	2140      	movs	r1, #64	; 0x40
 8002f6a:	f000 fae5 	bl	8003538 <_malloc_r>
 8002f6e:	6038      	str	r0, [r7, #0]
 8002f70:	6138      	str	r0, [r7, #16]
 8002f72:	2800      	cmp	r0, #0
 8002f74:	d105      	bne.n	8002f82 <_svfiprintf_r+0x32>
 8002f76:	230c      	movs	r3, #12
 8002f78:	9a03      	ldr	r2, [sp, #12]
 8002f7a:	3801      	subs	r0, #1
 8002f7c:	6013      	str	r3, [r2, #0]
 8002f7e:	b021      	add	sp, #132	; 0x84
 8002f80:	bdf0      	pop	{r4, r5, r6, r7, pc}
 8002f82:	2340      	movs	r3, #64	; 0x40
 8002f84:	617b      	str	r3, [r7, #20]
 8002f86:	2300      	movs	r3, #0
 8002f88:	ac08      	add	r4, sp, #32
 8002f8a:	6163      	str	r3, [r4, #20]
 8002f8c:	3320      	adds	r3, #32
 8002f8e:	7663      	strb	r3, [r4, #25]
 8002f90:	3310      	adds	r3, #16
 8002f92:	76a3      	strb	r3, [r4, #26]
 8002f94:	9507      	str	r5, [sp, #28]
 8002f96:	0035      	movs	r5, r6
 8002f98:	782b      	ldrb	r3, [r5, #0]
 8002f9a:	2b00      	cmp	r3, #0
 8002f9c:	d001      	beq.n	8002fa2 <_svfiprintf_r+0x52>
 8002f9e:	2b25      	cmp	r3, #37	; 0x25
 8002fa0:	d147      	bne.n	8003032 <_svfiprintf_r+0xe2>
 8002fa2:	1bab      	subs	r3, r5, r6
 8002fa4:	9305      	str	r3, [sp, #20]
 8002fa6:	42b5      	cmp	r5, r6
 8002fa8:	d00c      	beq.n	8002fc4 <_svfiprintf_r+0x74>
 8002faa:	0032      	movs	r2, r6
 8002fac:	0039      	movs	r1, r7
 8002fae:	9803      	ldr	r0, [sp, #12]
 8002fb0:	f7ff ff6c 	bl	8002e8c <__ssputs_r>
 8002fb4:	1c43      	adds	r3, r0, #1
 8002fb6:	d100      	bne.n	8002fba <_svfiprintf_r+0x6a>
 8002fb8:	e0ae      	b.n	8003118 <_svfiprintf_r+0x1c8>
 8002fba:	6962      	ldr	r2, [r4, #20]
 8002fbc:	9b05      	ldr	r3, [sp, #20]
 8002fbe:	4694      	mov	ip, r2
 8002fc0:	4463      	add	r3, ip
 8002fc2:	6163      	str	r3, [r4, #20]
 8002fc4:	782b      	ldrb	r3, [r5, #0]
 8002fc6:	2b00      	cmp	r3, #0
 8002fc8:	d100      	bne.n	8002fcc <_svfiprintf_r+0x7c>
 8002fca:	e0a5      	b.n	8003118 <_svfiprintf_r+0x1c8>
 8002fcc:	2201      	movs	r2, #1
 8002fce:	2300      	movs	r3, #0
 8002fd0:	4252      	negs	r2, r2
 8002fd2:	6062      	str	r2, [r4, #4]
 8002fd4:	a904      	add	r1, sp, #16
 8002fd6:	3254      	adds	r2, #84	; 0x54
 8002fd8:	1852      	adds	r2, r2, r1
 8002fda:	1c6e      	adds	r6, r5, #1
 8002fdc:	6023      	str	r3, [r4, #0]
 8002fde:	60e3      	str	r3, [r4, #12]
 8002fe0:	60a3      	str	r3, [r4, #8]
 8002fe2:	7013      	strb	r3, [r2, #0]
 8002fe4:	65a3      	str	r3, [r4, #88]	; 0x58
 8002fe6:	2205      	movs	r2, #5
 8002fe8:	7831      	ldrb	r1, [r6, #0]
 8002fea:	4854      	ldr	r0, [pc, #336]	; (800313c <_svfiprintf_r+0x1ec>)
 8002fec:	f000 fa32 	bl	8003454 <memchr>
 8002ff0:	1c75      	adds	r5, r6, #1
 8002ff2:	2800      	cmp	r0, #0
 8002ff4:	d11f      	bne.n	8003036 <_svfiprintf_r+0xe6>
 8002ff6:	6822      	ldr	r2, [r4, #0]
 8002ff8:	06d3      	lsls	r3, r2, #27
 8002ffa:	d504      	bpl.n	8003006 <_svfiprintf_r+0xb6>
 8002ffc:	2353      	movs	r3, #83	; 0x53
 8002ffe:	a904      	add	r1, sp, #16
 8003000:	185b      	adds	r3, r3, r1
 8003002:	2120      	movs	r1, #32
 8003004:	7019      	strb	r1, [r3, #0]
 8003006:	0713      	lsls	r3, r2, #28
 8003008:	d504      	bpl.n	8003014 <_svfiprintf_r+0xc4>
 800300a:	2353      	movs	r3, #83	; 0x53
 800300c:	a904      	add	r1, sp, #16
 800300e:	185b      	adds	r3, r3, r1
 8003010:	212b      	movs	r1, #43	; 0x2b
 8003012:	7019      	strb	r1, [r3, #0]
 8003014:	7833      	ldrb	r3, [r6, #0]
 8003016:	2b2a      	cmp	r3, #42	; 0x2a
 8003018:	d016      	beq.n	8003048 <_svfiprintf_r+0xf8>
 800301a:	0035      	movs	r5, r6
 800301c:	2100      	movs	r1, #0
 800301e:	200a      	movs	r0, #10
 8003020:	68e3      	ldr	r3, [r4, #12]
 8003022:	782a      	ldrb	r2, [r5, #0]
 8003024:	1c6e      	adds	r6, r5, #1
 8003026:	3a30      	subs	r2, #48	; 0x30
 8003028:	2a09      	cmp	r2, #9
 800302a:	d94e      	bls.n	80030ca <_svfiprintf_r+0x17a>
 800302c:	2900      	cmp	r1, #0
 800302e:	d111      	bne.n	8003054 <_svfiprintf_r+0x104>
 8003030:	e017      	b.n	8003062 <_svfiprintf_r+0x112>
 8003032:	3501      	adds	r5, #1
 8003034:	e7b0      	b.n	8002f98 <_svfiprintf_r+0x48>
 8003036:	4b41      	ldr	r3, [pc, #260]	; (800313c <_svfiprintf_r+0x1ec>)
 8003038:	6822      	ldr	r2, [r4, #0]
 800303a:	1ac0      	subs	r0, r0, r3
 800303c:	2301      	movs	r3, #1
 800303e:	4083      	lsls	r3, r0
 8003040:	4313      	orrs	r3, r2
 8003042:	002e      	movs	r6, r5
 8003044:	6023      	str	r3, [r4, #0]
 8003046:	e7ce      	b.n	8002fe6 <_svfiprintf_r+0x96>
 8003048:	9b07      	ldr	r3, [sp, #28]
 800304a:	1d19      	adds	r1, r3, #4
 800304c:	681b      	ldr	r3, [r3, #0]
 800304e:	9107      	str	r1, [sp, #28]
 8003050:	2b00      	cmp	r3, #0
 8003052:	db01      	blt.n	8003058 <_svfiprintf_r+0x108>
 8003054:	930b      	str	r3, [sp, #44]	; 0x2c
 8003056:	e004      	b.n	8003062 <_svfiprintf_r+0x112>
 8003058:	425b      	negs	r3, r3
 800305a:	60e3      	str	r3, [r4, #12]
 800305c:	2302      	movs	r3, #2
 800305e:	4313      	orrs	r3, r2
 8003060:	6023      	str	r3, [r4, #0]
 8003062:	782b      	ldrb	r3, [r5, #0]
 8003064:	2b2e      	cmp	r3, #46	; 0x2e
 8003066:	d10a      	bne.n	800307e <_svfiprintf_r+0x12e>
 8003068:	786b      	ldrb	r3, [r5, #1]
 800306a:	2b2a      	cmp	r3, #42	; 0x2a
 800306c:	d135      	bne.n	80030da <_svfiprintf_r+0x18a>
 800306e:	9b07      	ldr	r3, [sp, #28]
 8003070:	3502      	adds	r5, #2
 8003072:	1d1a      	adds	r2, r3, #4
 8003074:	681b      	ldr	r3, [r3, #0]
 8003076:	9207      	str	r2, [sp, #28]
 8003078:	2b00      	cmp	r3, #0
 800307a:	db2b      	blt.n	80030d4 <_svfiprintf_r+0x184>
 800307c:	9309      	str	r3, [sp, #36]	; 0x24
 800307e:	4e30      	ldr	r6, [pc, #192]	; (8003140 <_svfiprintf_r+0x1f0>)
 8003080:	2203      	movs	r2, #3
 8003082:	0030      	movs	r0, r6
 8003084:	7829      	ldrb	r1, [r5, #0]
 8003086:	f000 f9e5 	bl	8003454 <memchr>
 800308a:	2800      	cmp	r0, #0
 800308c:	d006      	beq.n	800309c <_svfiprintf_r+0x14c>
 800308e:	2340      	movs	r3, #64	; 0x40
 8003090:	1b80      	subs	r0, r0, r6
 8003092:	4083      	lsls	r3, r0
 8003094:	6822      	ldr	r2, [r4, #0]
 8003096:	3501      	adds	r5, #1
 8003098:	4313      	orrs	r3, r2
 800309a:	6023      	str	r3, [r4, #0]
 800309c:	7829      	ldrb	r1, [r5, #0]
 800309e:	2206      	movs	r2, #6
 80030a0:	4828      	ldr	r0, [pc, #160]	; (8003144 <_svfiprintf_r+0x1f4>)
 80030a2:	1c6e      	adds	r6, r5, #1
 80030a4:	7621      	strb	r1, [r4, #24]
 80030a6:	f000 f9d5 	bl	8003454 <memchr>
 80030aa:	2800      	cmp	r0, #0
 80030ac:	d03c      	beq.n	8003128 <_svfiprintf_r+0x1d8>
 80030ae:	4b26      	ldr	r3, [pc, #152]	; (8003148 <_svfiprintf_r+0x1f8>)
 80030b0:	2b00      	cmp	r3, #0
 80030b2:	d125      	bne.n	8003100 <_svfiprintf_r+0x1b0>
 80030b4:	2207      	movs	r2, #7
 80030b6:	9b07      	ldr	r3, [sp, #28]
 80030b8:	3307      	adds	r3, #7
 80030ba:	4393      	bics	r3, r2
 80030bc:	3308      	adds	r3, #8
 80030be:	9307      	str	r3, [sp, #28]
 80030c0:	6963      	ldr	r3, [r4, #20]
 80030c2:	9a04      	ldr	r2, [sp, #16]
 80030c4:	189b      	adds	r3, r3, r2
 80030c6:	6163      	str	r3, [r4, #20]
 80030c8:	e765      	b.n	8002f96 <_svfiprintf_r+0x46>
 80030ca:	4343      	muls	r3, r0
 80030cc:	0035      	movs	r5, r6
 80030ce:	2101      	movs	r1, #1
 80030d0:	189b      	adds	r3, r3, r2
 80030d2:	e7a6      	b.n	8003022 <_svfiprintf_r+0xd2>
 80030d4:	2301      	movs	r3, #1
 80030d6:	425b      	negs	r3, r3
 80030d8:	e7d0      	b.n	800307c <_svfiprintf_r+0x12c>
 80030da:	2300      	movs	r3, #0
 80030dc:	200a      	movs	r0, #10
 80030de:	001a      	movs	r2, r3
 80030e0:	3501      	adds	r5, #1
 80030e2:	6063      	str	r3, [r4, #4]
 80030e4:	7829      	ldrb	r1, [r5, #0]
 80030e6:	1c6e      	adds	r6, r5, #1
 80030e8:	3930      	subs	r1, #48	; 0x30
 80030ea:	2909      	cmp	r1, #9
 80030ec:	d903      	bls.n	80030f6 <_svfiprintf_r+0x1a6>
 80030ee:	2b00      	cmp	r3, #0
 80030f0:	d0c5      	beq.n	800307e <_svfiprintf_r+0x12e>
 80030f2:	9209      	str	r2, [sp, #36]	; 0x24
 80030f4:	e7c3      	b.n	800307e <_svfiprintf_r+0x12e>
 80030f6:	4342      	muls	r2, r0
 80030f8:	0035      	movs	r5, r6
 80030fa:	2301      	movs	r3, #1
 80030fc:	1852      	adds	r2, r2, r1
 80030fe:	e7f1      	b.n	80030e4 <_svfiprintf_r+0x194>
 8003100:	ab07      	add	r3, sp, #28
 8003102:	9300      	str	r3, [sp, #0]
 8003104:	003a      	movs	r2, r7
 8003106:	0021      	movs	r1, r4
 8003108:	4b10      	ldr	r3, [pc, #64]	; (800314c <_svfiprintf_r+0x1fc>)
 800310a:	9803      	ldr	r0, [sp, #12]
 800310c:	e000      	b.n	8003110 <_svfiprintf_r+0x1c0>
 800310e:	bf00      	nop
 8003110:	9004      	str	r0, [sp, #16]
 8003112:	9b04      	ldr	r3, [sp, #16]
 8003114:	3301      	adds	r3, #1
 8003116:	d1d3      	bne.n	80030c0 <_svfiprintf_r+0x170>
 8003118:	89bb      	ldrh	r3, [r7, #12]
 800311a:	980d      	ldr	r0, [sp, #52]	; 0x34
 800311c:	065b      	lsls	r3, r3, #25
 800311e:	d400      	bmi.n	8003122 <_svfiprintf_r+0x1d2>
 8003120:	e72d      	b.n	8002f7e <_svfiprintf_r+0x2e>
 8003122:	2001      	movs	r0, #1
 8003124:	4240      	negs	r0, r0
 8003126:	e72a      	b.n	8002f7e <_svfiprintf_r+0x2e>
 8003128:	ab07      	add	r3, sp, #28
 800312a:	9300      	str	r3, [sp, #0]
 800312c:	003a      	movs	r2, r7
 800312e:	0021      	movs	r1, r4
 8003130:	4b06      	ldr	r3, [pc, #24]	; (800314c <_svfiprintf_r+0x1fc>)
 8003132:	9803      	ldr	r0, [sp, #12]
 8003134:	f000 f87c 	bl	8003230 <_printf_i>
 8003138:	e7ea      	b.n	8003110 <_svfiprintf_r+0x1c0>
 800313a:	46c0      	nop			; (mov r8, r8)
 800313c:	08003713 	.word	0x08003713
 8003140:	08003719 	.word	0x08003719
 8003144:	0800371d 	.word	0x0800371d
 8003148:	00000000 	.word	0x00000000
 800314c:	08002e8d 	.word	0x08002e8d

08003150 <_printf_common>:
 8003150:	b5f7      	push	{r0, r1, r2, r4, r5, r6, r7, lr}
 8003152:	0015      	movs	r5, r2
 8003154:	9301      	str	r3, [sp, #4]
 8003156:	688a      	ldr	r2, [r1, #8]
 8003158:	690b      	ldr	r3, [r1, #16]
 800315a:	000c      	movs	r4, r1
 800315c:	9000      	str	r0, [sp, #0]
 800315e:	4293      	cmp	r3, r2
 8003160:	da00      	bge.n	8003164 <_printf_common+0x14>
 8003162:	0013      	movs	r3, r2
 8003164:	0022      	movs	r2, r4
 8003166:	602b      	str	r3, [r5, #0]
 8003168:	3243      	adds	r2, #67	; 0x43
 800316a:	7812      	ldrb	r2, [r2, #0]
 800316c:	2a00      	cmp	r2, #0
 800316e:	d001      	beq.n	8003174 <_printf_common+0x24>
 8003170:	3301      	adds	r3, #1
 8003172:	602b      	str	r3, [r5, #0]
 8003174:	6823      	ldr	r3, [r4, #0]
 8003176:	069b      	lsls	r3, r3, #26
 8003178:	d502      	bpl.n	8003180 <_printf_common+0x30>
 800317a:	682b      	ldr	r3, [r5, #0]
 800317c:	3302      	adds	r3, #2
 800317e:	602b      	str	r3, [r5, #0]
 8003180:	6822      	ldr	r2, [r4, #0]
 8003182:	2306      	movs	r3, #6
 8003184:	0017      	movs	r7, r2
 8003186:	401f      	ands	r7, r3
 8003188:	421a      	tst	r2, r3
 800318a:	d027      	beq.n	80031dc <_printf_common+0x8c>
 800318c:	0023      	movs	r3, r4
 800318e:	3343      	adds	r3, #67	; 0x43
 8003190:	781b      	ldrb	r3, [r3, #0]
 8003192:	1e5a      	subs	r2, r3, #1
 8003194:	4193      	sbcs	r3, r2
 8003196:	6822      	ldr	r2, [r4, #0]
 8003198:	0692      	lsls	r2, r2, #26
 800319a:	d430      	bmi.n	80031fe <_printf_common+0xae>
 800319c:	0022      	movs	r2, r4
 800319e:	9901      	ldr	r1, [sp, #4]
 80031a0:	9800      	ldr	r0, [sp, #0]
 80031a2:	9e08      	ldr	r6, [sp, #32]
 80031a4:	3243      	adds	r2, #67	; 0x43
 80031a6:	47b0      	blx	r6
 80031a8:	1c43      	adds	r3, r0, #1
 80031aa:	d025      	beq.n	80031f8 <_printf_common+0xa8>
 80031ac:	2306      	movs	r3, #6
 80031ae:	6820      	ldr	r0, [r4, #0]
 80031b0:	682a      	ldr	r2, [r5, #0]
 80031b2:	68e1      	ldr	r1, [r4, #12]
 80031b4:	2500      	movs	r5, #0
 80031b6:	4003      	ands	r3, r0
 80031b8:	2b04      	cmp	r3, #4
 80031ba:	d103      	bne.n	80031c4 <_printf_common+0x74>
 80031bc:	1a8d      	subs	r5, r1, r2
 80031be:	43eb      	mvns	r3, r5
 80031c0:	17db      	asrs	r3, r3, #31
 80031c2:	401d      	ands	r5, r3
 80031c4:	68a3      	ldr	r3, [r4, #8]
 80031c6:	6922      	ldr	r2, [r4, #16]
 80031c8:	4293      	cmp	r3, r2
 80031ca:	dd01      	ble.n	80031d0 <_printf_common+0x80>
 80031cc:	1a9b      	subs	r3, r3, r2
 80031ce:	18ed      	adds	r5, r5, r3
 80031d0:	2700      	movs	r7, #0
 80031d2:	42bd      	cmp	r5, r7
 80031d4:	d120      	bne.n	8003218 <_printf_common+0xc8>
 80031d6:	2000      	movs	r0, #0
 80031d8:	e010      	b.n	80031fc <_printf_common+0xac>
 80031da:	3701      	adds	r7, #1
 80031dc:	68e3      	ldr	r3, [r4, #12]
 80031de:	682a      	ldr	r2, [r5, #0]
 80031e0:	1a9b      	subs	r3, r3, r2
 80031e2:	42bb      	cmp	r3, r7
 80031e4:	ddd2      	ble.n	800318c <_printf_common+0x3c>
 80031e6:	0022      	movs	r2, r4
 80031e8:	2301      	movs	r3, #1
 80031ea:	9901      	ldr	r1, [sp, #4]
 80031ec:	9800      	ldr	r0, [sp, #0]
 80031ee:	9e08      	ldr	r6, [sp, #32]
 80031f0:	3219      	adds	r2, #25
 80031f2:	47b0      	blx	r6
 80031f4:	1c43      	adds	r3, r0, #1
 80031f6:	d1f0      	bne.n	80031da <_printf_common+0x8a>
 80031f8:	2001      	movs	r0, #1
 80031fa:	4240      	negs	r0, r0
 80031fc:	bdfe      	pop	{r1, r2, r3, r4, r5, r6, r7, pc}
 80031fe:	2030      	movs	r0, #48	; 0x30
 8003200:	18e1      	adds	r1, r4, r3
 8003202:	3143      	adds	r1, #67	; 0x43
 8003204:	7008      	strb	r0, [r1, #0]
 8003206:	0021      	movs	r1, r4
 8003208:	1c5a      	adds	r2, r3, #1
 800320a:	3145      	adds	r1, #69	; 0x45
 800320c:	7809      	ldrb	r1, [r1, #0]
 800320e:	18a2      	adds	r2, r4, r2
 8003210:	3243      	adds	r2, #67	; 0x43
 8003212:	3302      	adds	r3, #2
 8003214:	7011      	strb	r1, [r2, #0]
 8003216:	e7c1      	b.n	800319c <_printf_common+0x4c>
 8003218:	0022      	movs	r2, r4
 800321a:	2301      	movs	r3, #1
 800321c:	9901      	ldr	r1, [sp, #4]
 800321e:	9800      	ldr	r0, [sp, #0]
 8003220:	9e08      	ldr	r6, [sp, #32]
 8003222:	321a      	adds	r2, #26
 8003224:	47b0      	blx	r6
 8003226:	1c43      	adds	r3, r0, #1
 8003228:	d0e6      	beq.n	80031f8 <_printf_common+0xa8>
 800322a:	3701      	adds	r7, #1
 800322c:	e7d1      	b.n	80031d2 <_printf_common+0x82>
	...

08003230 <_printf_i>:
 8003230:	b5f0      	push	{r4, r5, r6, r7, lr}
 8003232:	b08b      	sub	sp, #44	; 0x2c
 8003234:	9206      	str	r2, [sp, #24]
 8003236:	000a      	movs	r2, r1
 8003238:	3243      	adds	r2, #67	; 0x43
 800323a:	9307      	str	r3, [sp, #28]
 800323c:	9005      	str	r0, [sp, #20]
 800323e:	9204      	str	r2, [sp, #16]
 8003240:	7e0a      	ldrb	r2, [r1, #24]
 8003242:	000c      	movs	r4, r1
 8003244:	9b10      	ldr	r3, [sp, #64]	; 0x40
 8003246:	2a78      	cmp	r2, #120	; 0x78
 8003248:	d806      	bhi.n	8003258 <_printf_i+0x28>
 800324a:	2a62      	cmp	r2, #98	; 0x62
 800324c:	d808      	bhi.n	8003260 <_printf_i+0x30>
 800324e:	2a00      	cmp	r2, #0
 8003250:	d100      	bne.n	8003254 <_printf_i+0x24>
 8003252:	e0c0      	b.n	80033d6 <_printf_i+0x1a6>
 8003254:	2a58      	cmp	r2, #88	; 0x58
 8003256:	d052      	beq.n	80032fe <_printf_i+0xce>
 8003258:	0026      	movs	r6, r4
 800325a:	3642      	adds	r6, #66	; 0x42
 800325c:	7032      	strb	r2, [r6, #0]
 800325e:	e022      	b.n	80032a6 <_printf_i+0x76>
 8003260:	0010      	movs	r0, r2
 8003262:	3863      	subs	r0, #99	; 0x63
 8003264:	2815      	cmp	r0, #21
 8003266:	d8f7      	bhi.n	8003258 <_printf_i+0x28>
 8003268:	f7fc ff58 	bl	800011c <__gnu_thumb1_case_shi>
 800326c:	001f0016 	.word	0x001f0016
 8003270:	fff6fff6 	.word	0xfff6fff6
 8003274:	fff6fff6 	.word	0xfff6fff6
 8003278:	fff6001f 	.word	0xfff6001f
 800327c:	fff6fff6 	.word	0xfff6fff6
 8003280:	00a8fff6 	.word	0x00a8fff6
 8003284:	009a0036 	.word	0x009a0036
 8003288:	fff6fff6 	.word	0xfff6fff6
 800328c:	fff600b9 	.word	0xfff600b9
 8003290:	fff60036 	.word	0xfff60036
 8003294:	009efff6 	.word	0x009efff6
 8003298:	0026      	movs	r6, r4
 800329a:	681a      	ldr	r2, [r3, #0]
 800329c:	3642      	adds	r6, #66	; 0x42
 800329e:	1d11      	adds	r1, r2, #4
 80032a0:	6019      	str	r1, [r3, #0]
 80032a2:	6813      	ldr	r3, [r2, #0]
 80032a4:	7033      	strb	r3, [r6, #0]
 80032a6:	2301      	movs	r3, #1
 80032a8:	e0a7      	b.n	80033fa <_printf_i+0x1ca>
 80032aa:	6808      	ldr	r0, [r1, #0]
 80032ac:	6819      	ldr	r1, [r3, #0]
 80032ae:	1d0a      	adds	r2, r1, #4
 80032b0:	0605      	lsls	r5, r0, #24
 80032b2:	d50b      	bpl.n	80032cc <_printf_i+0x9c>
 80032b4:	680d      	ldr	r5, [r1, #0]
 80032b6:	601a      	str	r2, [r3, #0]
 80032b8:	2d00      	cmp	r5, #0
 80032ba:	da03      	bge.n	80032c4 <_printf_i+0x94>
 80032bc:	232d      	movs	r3, #45	; 0x2d
 80032be:	9a04      	ldr	r2, [sp, #16]
 80032c0:	426d      	negs	r5, r5
 80032c2:	7013      	strb	r3, [r2, #0]
 80032c4:	4b61      	ldr	r3, [pc, #388]	; (800344c <_printf_i+0x21c>)
 80032c6:	270a      	movs	r7, #10
 80032c8:	9303      	str	r3, [sp, #12]
 80032ca:	e032      	b.n	8003332 <_printf_i+0x102>
 80032cc:	680d      	ldr	r5, [r1, #0]
 80032ce:	601a      	str	r2, [r3, #0]
 80032d0:	0641      	lsls	r1, r0, #25
 80032d2:	d5f1      	bpl.n	80032b8 <_printf_i+0x88>
 80032d4:	b22d      	sxth	r5, r5
 80032d6:	e7ef      	b.n	80032b8 <_printf_i+0x88>
 80032d8:	680d      	ldr	r5, [r1, #0]
 80032da:	6819      	ldr	r1, [r3, #0]
 80032dc:	1d08      	adds	r0, r1, #4
 80032de:	6018      	str	r0, [r3, #0]
 80032e0:	062e      	lsls	r6, r5, #24
 80032e2:	d501      	bpl.n	80032e8 <_printf_i+0xb8>
 80032e4:	680d      	ldr	r5, [r1, #0]
 80032e6:	e003      	b.n	80032f0 <_printf_i+0xc0>
 80032e8:	066d      	lsls	r5, r5, #25
 80032ea:	d5fb      	bpl.n	80032e4 <_printf_i+0xb4>
 80032ec:	680d      	ldr	r5, [r1, #0]
 80032ee:	b2ad      	uxth	r5, r5
 80032f0:	4b56      	ldr	r3, [pc, #344]	; (800344c <_printf_i+0x21c>)
 80032f2:	270a      	movs	r7, #10
 80032f4:	9303      	str	r3, [sp, #12]
 80032f6:	2a6f      	cmp	r2, #111	; 0x6f
 80032f8:	d117      	bne.n	800332a <_printf_i+0xfa>
 80032fa:	2708      	movs	r7, #8
 80032fc:	e015      	b.n	800332a <_printf_i+0xfa>
 80032fe:	3145      	adds	r1, #69	; 0x45
 8003300:	700a      	strb	r2, [r1, #0]
 8003302:	4a52      	ldr	r2, [pc, #328]	; (800344c <_printf_i+0x21c>)
 8003304:	9203      	str	r2, [sp, #12]
 8003306:	681a      	ldr	r2, [r3, #0]
 8003308:	6821      	ldr	r1, [r4, #0]
 800330a:	ca20      	ldmia	r2!, {r5}
 800330c:	601a      	str	r2, [r3, #0]
 800330e:	0608      	lsls	r0, r1, #24
 8003310:	d550      	bpl.n	80033b4 <_printf_i+0x184>
 8003312:	07cb      	lsls	r3, r1, #31
 8003314:	d502      	bpl.n	800331c <_printf_i+0xec>
 8003316:	2320      	movs	r3, #32
 8003318:	4319      	orrs	r1, r3
 800331a:	6021      	str	r1, [r4, #0]
 800331c:	2710      	movs	r7, #16
 800331e:	2d00      	cmp	r5, #0
 8003320:	d103      	bne.n	800332a <_printf_i+0xfa>
 8003322:	2320      	movs	r3, #32
 8003324:	6822      	ldr	r2, [r4, #0]
 8003326:	439a      	bics	r2, r3
 8003328:	6022      	str	r2, [r4, #0]
 800332a:	0023      	movs	r3, r4
 800332c:	2200      	movs	r2, #0
 800332e:	3343      	adds	r3, #67	; 0x43
 8003330:	701a      	strb	r2, [r3, #0]
 8003332:	6863      	ldr	r3, [r4, #4]
 8003334:	60a3      	str	r3, [r4, #8]
 8003336:	2b00      	cmp	r3, #0
 8003338:	db03      	blt.n	8003342 <_printf_i+0x112>
 800333a:	2204      	movs	r2, #4
 800333c:	6821      	ldr	r1, [r4, #0]
 800333e:	4391      	bics	r1, r2
 8003340:	6021      	str	r1, [r4, #0]
 8003342:	2d00      	cmp	r5, #0
 8003344:	d102      	bne.n	800334c <_printf_i+0x11c>
 8003346:	9e04      	ldr	r6, [sp, #16]
 8003348:	2b00      	cmp	r3, #0
 800334a:	d00c      	beq.n	8003366 <_printf_i+0x136>
 800334c:	9e04      	ldr	r6, [sp, #16]
 800334e:	0028      	movs	r0, r5
 8003350:	0039      	movs	r1, r7
 8003352:	f7fc ff73 	bl	800023c <__aeabi_uidivmod>
 8003356:	9b03      	ldr	r3, [sp, #12]
 8003358:	3e01      	subs	r6, #1
 800335a:	5c5b      	ldrb	r3, [r3, r1]
 800335c:	7033      	strb	r3, [r6, #0]
 800335e:	002b      	movs	r3, r5
 8003360:	0005      	movs	r5, r0
 8003362:	429f      	cmp	r7, r3
 8003364:	d9f3      	bls.n	800334e <_printf_i+0x11e>
 8003366:	2f08      	cmp	r7, #8
 8003368:	d109      	bne.n	800337e <_printf_i+0x14e>
 800336a:	6823      	ldr	r3, [r4, #0]
 800336c:	07db      	lsls	r3, r3, #31
 800336e:	d506      	bpl.n	800337e <_printf_i+0x14e>
 8003370:	6863      	ldr	r3, [r4, #4]
 8003372:	6922      	ldr	r2, [r4, #16]
 8003374:	4293      	cmp	r3, r2
 8003376:	dc02      	bgt.n	800337e <_printf_i+0x14e>
 8003378:	2330      	movs	r3, #48	; 0x30
 800337a:	3e01      	subs	r6, #1
 800337c:	7033      	strb	r3, [r6, #0]
 800337e:	9b04      	ldr	r3, [sp, #16]
 8003380:	1b9b      	subs	r3, r3, r6
 8003382:	6123      	str	r3, [r4, #16]
 8003384:	9b07      	ldr	r3, [sp, #28]
 8003386:	0021      	movs	r1, r4
 8003388:	9300      	str	r3, [sp, #0]
 800338a:	9805      	ldr	r0, [sp, #20]
 800338c:	9b06      	ldr	r3, [sp, #24]
 800338e:	aa09      	add	r2, sp, #36	; 0x24
 8003390:	f7ff fede 	bl	8003150 <_printf_common>
 8003394:	1c43      	adds	r3, r0, #1
 8003396:	d135      	bne.n	8003404 <_printf_i+0x1d4>
 8003398:	2001      	movs	r0, #1
 800339a:	4240      	negs	r0, r0
 800339c:	b00b      	add	sp, #44	; 0x2c
 800339e:	bdf0      	pop	{r4, r5, r6, r7, pc}
 80033a0:	2220      	movs	r2, #32
 80033a2:	6809      	ldr	r1, [r1, #0]
 80033a4:	430a      	orrs	r2, r1
 80033a6:	6022      	str	r2, [r4, #0]
 80033a8:	0022      	movs	r2, r4
 80033aa:	2178      	movs	r1, #120	; 0x78
 80033ac:	3245      	adds	r2, #69	; 0x45
 80033ae:	7011      	strb	r1, [r2, #0]
 80033b0:	4a27      	ldr	r2, [pc, #156]	; (8003450 <_printf_i+0x220>)
 80033b2:	e7a7      	b.n	8003304 <_printf_i+0xd4>
 80033b4:	0648      	lsls	r0, r1, #25
 80033b6:	d5ac      	bpl.n	8003312 <_printf_i+0xe2>
 80033b8:	b2ad      	uxth	r5, r5
 80033ba:	e7aa      	b.n	8003312 <_printf_i+0xe2>
 80033bc:	681a      	ldr	r2, [r3, #0]
 80033be:	680d      	ldr	r5, [r1, #0]
 80033c0:	1d10      	adds	r0, r2, #4
 80033c2:	6949      	ldr	r1, [r1, #20]
 80033c4:	6018      	str	r0, [r3, #0]
 80033c6:	6813      	ldr	r3, [r2, #0]
 80033c8:	062e      	lsls	r6, r5, #24
 80033ca:	d501      	bpl.n	80033d0 <_printf_i+0x1a0>
 80033cc:	6019      	str	r1, [r3, #0]
 80033ce:	e002      	b.n	80033d6 <_printf_i+0x1a6>
 80033d0:	066d      	lsls	r5, r5, #25
 80033d2:	d5fb      	bpl.n	80033cc <_printf_i+0x19c>
 80033d4:	8019      	strh	r1, [r3, #0]
 80033d6:	2300      	movs	r3, #0
 80033d8:	9e04      	ldr	r6, [sp, #16]
 80033da:	6123      	str	r3, [r4, #16]
 80033dc:	e7d2      	b.n	8003384 <_printf_i+0x154>
 80033de:	681a      	ldr	r2, [r3, #0]
 80033e0:	1d11      	adds	r1, r2, #4
 80033e2:	6019      	str	r1, [r3, #0]
 80033e4:	6816      	ldr	r6, [r2, #0]
 80033e6:	2100      	movs	r1, #0
 80033e8:	0030      	movs	r0, r6
 80033ea:	6862      	ldr	r2, [r4, #4]
 80033ec:	f000 f832 	bl	8003454 <memchr>
 80033f0:	2800      	cmp	r0, #0
 80033f2:	d001      	beq.n	80033f8 <_printf_i+0x1c8>
 80033f4:	1b80      	subs	r0, r0, r6
 80033f6:	6060      	str	r0, [r4, #4]
 80033f8:	6863      	ldr	r3, [r4, #4]
 80033fa:	6123      	str	r3, [r4, #16]
 80033fc:	2300      	movs	r3, #0
 80033fe:	9a04      	ldr	r2, [sp, #16]
 8003400:	7013      	strb	r3, [r2, #0]
 8003402:	e7bf      	b.n	8003384 <_printf_i+0x154>
 8003404:	6923      	ldr	r3, [r4, #16]
 8003406:	0032      	movs	r2, r6
 8003408:	9906      	ldr	r1, [sp, #24]
 800340a:	9805      	ldr	r0, [sp, #20]
 800340c:	9d07      	ldr	r5, [sp, #28]
 800340e:	47a8      	blx	r5
 8003410:	1c43      	adds	r3, r0, #1
 8003412:	d0c1      	beq.n	8003398 <_printf_i+0x168>
 8003414:	6823      	ldr	r3, [r4, #0]
 8003416:	079b      	lsls	r3, r3, #30
 8003418:	d415      	bmi.n	8003446 <_printf_i+0x216>
 800341a:	9b09      	ldr	r3, [sp, #36]	; 0x24
 800341c:	68e0      	ldr	r0, [r4, #12]
 800341e:	4298      	cmp	r0, r3
 8003420:	dabc      	bge.n	800339c <_printf_i+0x16c>
 8003422:	0018      	movs	r0, r3
 8003424:	e7ba      	b.n	800339c <_printf_i+0x16c>
 8003426:	0022      	movs	r2, r4
 8003428:	2301      	movs	r3, #1
 800342a:	9906      	ldr	r1, [sp, #24]
 800342c:	9805      	ldr	r0, [sp, #20]
 800342e:	9e07      	ldr	r6, [sp, #28]
 8003430:	3219      	adds	r2, #25
 8003432:	47b0      	blx	r6
 8003434:	1c43      	adds	r3, r0, #1
 8003436:	d0af      	beq.n	8003398 <_printf_i+0x168>
 8003438:	3501      	adds	r5, #1
 800343a:	68e3      	ldr	r3, [r4, #12]
 800343c:	9a09      	ldr	r2, [sp, #36]	; 0x24
 800343e:	1a9b      	subs	r3, r3, r2
 8003440:	42ab      	cmp	r3, r5
 8003442:	dcf0      	bgt.n	8003426 <_printf_i+0x1f6>
 8003444:	e7e9      	b.n	800341a <_printf_i+0x1ea>
 8003446:	2500      	movs	r5, #0
 8003448:	e7f7      	b.n	800343a <_printf_i+0x20a>
 800344a:	46c0      	nop			; (mov r8, r8)
 800344c:	08003724 	.word	0x08003724
 8003450:	08003735 	.word	0x08003735

08003454 <memchr>:
 8003454:	b2c9      	uxtb	r1, r1
 8003456:	1882      	adds	r2, r0, r2
 8003458:	4290      	cmp	r0, r2
 800345a:	d101      	bne.n	8003460 <memchr+0xc>
 800345c:	2000      	movs	r0, #0
 800345e:	4770      	bx	lr
 8003460:	7803      	ldrb	r3, [r0, #0]
 8003462:	428b      	cmp	r3, r1
 8003464:	d0fb      	beq.n	800345e <memchr+0xa>
 8003466:	3001      	adds	r0, #1
 8003468:	e7f6      	b.n	8003458 <memchr+0x4>

0800346a <memcpy>:
 800346a:	2300      	movs	r3, #0
 800346c:	b510      	push	{r4, lr}
 800346e:	429a      	cmp	r2, r3
 8003470:	d100      	bne.n	8003474 <memcpy+0xa>
 8003472:	bd10      	pop	{r4, pc}
 8003474:	5ccc      	ldrb	r4, [r1, r3]
 8003476:	54c4      	strb	r4, [r0, r3]
 8003478:	3301      	adds	r3, #1
 800347a:	e7f8      	b.n	800346e <memcpy+0x4>

0800347c <memmove>:
 800347c:	b510      	push	{r4, lr}
 800347e:	4288      	cmp	r0, r1
 8003480:	d902      	bls.n	8003488 <memmove+0xc>
 8003482:	188b      	adds	r3, r1, r2
 8003484:	4298      	cmp	r0, r3
 8003486:	d303      	bcc.n	8003490 <memmove+0x14>
 8003488:	2300      	movs	r3, #0
 800348a:	e007      	b.n	800349c <memmove+0x20>
 800348c:	5c8b      	ldrb	r3, [r1, r2]
 800348e:	5483      	strb	r3, [r0, r2]
 8003490:	3a01      	subs	r2, #1
 8003492:	d2fb      	bcs.n	800348c <memmove+0x10>
 8003494:	bd10      	pop	{r4, pc}
 8003496:	5ccc      	ldrb	r4, [r1, r3]
 8003498:	54c4      	strb	r4, [r0, r3]
 800349a:	3301      	adds	r3, #1
 800349c:	429a      	cmp	r2, r3
 800349e:	d1fa      	bne.n	8003496 <memmove+0x1a>
 80034a0:	e7f8      	b.n	8003494 <memmove+0x18>
	...

080034a4 <_free_r>:
 80034a4:	b570      	push	{r4, r5, r6, lr}
 80034a6:	0005      	movs	r5, r0
 80034a8:	2900      	cmp	r1, #0
 80034aa:	d010      	beq.n	80034ce <_free_r+0x2a>
 80034ac:	1f0c      	subs	r4, r1, #4
 80034ae:	6823      	ldr	r3, [r4, #0]
 80034b0:	2b00      	cmp	r3, #0
 80034b2:	da00      	bge.n	80034b6 <_free_r+0x12>
 80034b4:	18e4      	adds	r4, r4, r3
 80034b6:	0028      	movs	r0, r5
 80034b8:	f000 f8d4 	bl	8003664 <__malloc_lock>
 80034bc:	4a1d      	ldr	r2, [pc, #116]	; (8003534 <_free_r+0x90>)
 80034be:	6813      	ldr	r3, [r2, #0]
 80034c0:	2b00      	cmp	r3, #0
 80034c2:	d105      	bne.n	80034d0 <_free_r+0x2c>
 80034c4:	6063      	str	r3, [r4, #4]
 80034c6:	6014      	str	r4, [r2, #0]
 80034c8:	0028      	movs	r0, r5
 80034ca:	f000 f8d3 	bl	8003674 <__malloc_unlock>
 80034ce:	bd70      	pop	{r4, r5, r6, pc}
 80034d0:	42a3      	cmp	r3, r4
 80034d2:	d908      	bls.n	80034e6 <_free_r+0x42>
 80034d4:	6821      	ldr	r1, [r4, #0]
 80034d6:	1860      	adds	r0, r4, r1
 80034d8:	4283      	cmp	r3, r0
 80034da:	d1f3      	bne.n	80034c4 <_free_r+0x20>
 80034dc:	6818      	ldr	r0, [r3, #0]
 80034de:	685b      	ldr	r3, [r3, #4]
 80034e0:	1841      	adds	r1, r0, r1
 80034e2:	6021      	str	r1, [r4, #0]
 80034e4:	e7ee      	b.n	80034c4 <_free_r+0x20>
 80034e6:	001a      	movs	r2, r3
 80034e8:	685b      	ldr	r3, [r3, #4]
 80034ea:	2b00      	cmp	r3, #0
 80034ec:	d001      	beq.n	80034f2 <_free_r+0x4e>
 80034ee:	42a3      	cmp	r3, r4
 80034f0:	d9f9      	bls.n	80034e6 <_free_r+0x42>
 80034f2:	6811      	ldr	r1, [r2, #0]
 80034f4:	1850      	adds	r0, r2, r1
 80034f6:	42a0      	cmp	r0, r4
 80034f8:	d10b      	bne.n	8003512 <_free_r+0x6e>
 80034fa:	6820      	ldr	r0, [r4, #0]
 80034fc:	1809      	adds	r1, r1, r0
 80034fe:	1850      	adds	r0, r2, r1
 8003500:	6011      	str	r1, [r2, #0]
 8003502:	4283      	cmp	r3, r0
 8003504:	d1e0      	bne.n	80034c8 <_free_r+0x24>
 8003506:	6818      	ldr	r0, [r3, #0]
 8003508:	685b      	ldr	r3, [r3, #4]
 800350a:	1841      	adds	r1, r0, r1
 800350c:	6011      	str	r1, [r2, #0]
 800350e:	6053      	str	r3, [r2, #4]
 8003510:	e7da      	b.n	80034c8 <_free_r+0x24>
 8003512:	42a0      	cmp	r0, r4
 8003514:	d902      	bls.n	800351c <_free_r+0x78>
 8003516:	230c      	movs	r3, #12
 8003518:	602b      	str	r3, [r5, #0]
 800351a:	e7d5      	b.n	80034c8 <_free_r+0x24>
 800351c:	6821      	ldr	r1, [r4, #0]
 800351e:	1860      	adds	r0, r4, r1
 8003520:	4283      	cmp	r3, r0
 8003522:	d103      	bne.n	800352c <_free_r+0x88>
 8003524:	6818      	ldr	r0, [r3, #0]
 8003526:	685b      	ldr	r3, [r3, #4]
 8003528:	1841      	adds	r1, r0, r1
 800352a:	6021      	str	r1, [r4, #0]
 800352c:	6063      	str	r3, [r4, #4]
 800352e:	6054      	str	r4, [r2, #4]
 8003530:	e7ca      	b.n	80034c8 <_free_r+0x24>
 8003532:	46c0      	nop			; (mov r8, r8)
 8003534:	200000ac 	.word	0x200000ac

08003538 <_malloc_r>:
 8003538:	b5f8      	push	{r3, r4, r5, r6, r7, lr}
 800353a:	2303      	movs	r3, #3
 800353c:	1ccd      	adds	r5, r1, #3
 800353e:	439d      	bics	r5, r3
 8003540:	3508      	adds	r5, #8
 8003542:	0006      	movs	r6, r0
 8003544:	2d0c      	cmp	r5, #12
 8003546:	d21f      	bcs.n	8003588 <_malloc_r+0x50>
 8003548:	250c      	movs	r5, #12
 800354a:	42a9      	cmp	r1, r5
 800354c:	d81e      	bhi.n	800358c <_malloc_r+0x54>
 800354e:	0030      	movs	r0, r6
 8003550:	f000 f888 	bl	8003664 <__malloc_lock>
 8003554:	4925      	ldr	r1, [pc, #148]	; (80035ec <_malloc_r+0xb4>)
 8003556:	680a      	ldr	r2, [r1, #0]
 8003558:	0014      	movs	r4, r2
 800355a:	2c00      	cmp	r4, #0
 800355c:	d11a      	bne.n	8003594 <_malloc_r+0x5c>
 800355e:	4f24      	ldr	r7, [pc, #144]	; (80035f0 <_malloc_r+0xb8>)
 8003560:	683b      	ldr	r3, [r7, #0]
 8003562:	2b00      	cmp	r3, #0
 8003564:	d104      	bne.n	8003570 <_malloc_r+0x38>
 8003566:	0021      	movs	r1, r4
 8003568:	0030      	movs	r0, r6
 800356a:	f000 f869 	bl	8003640 <_sbrk_r>
 800356e:	6038      	str	r0, [r7, #0]
 8003570:	0029      	movs	r1, r5
 8003572:	0030      	movs	r0, r6
 8003574:	f000 f864 	bl	8003640 <_sbrk_r>
 8003578:	1c43      	adds	r3, r0, #1
 800357a:	d12b      	bne.n	80035d4 <_malloc_r+0x9c>
 800357c:	230c      	movs	r3, #12
 800357e:	0030      	movs	r0, r6
 8003580:	6033      	str	r3, [r6, #0]
 8003582:	f000 f877 	bl	8003674 <__malloc_unlock>
 8003586:	e003      	b.n	8003590 <_malloc_r+0x58>
 8003588:	2d00      	cmp	r5, #0
 800358a:	dade      	bge.n	800354a <_malloc_r+0x12>
 800358c:	230c      	movs	r3, #12
 800358e:	6033      	str	r3, [r6, #0]
 8003590:	2000      	movs	r0, #0
 8003592:	bdf8      	pop	{r3, r4, r5, r6, r7, pc}
 8003594:	6823      	ldr	r3, [r4, #0]
 8003596:	1b5b      	subs	r3, r3, r5
 8003598:	d419      	bmi.n	80035ce <_malloc_r+0x96>
 800359a:	2b0b      	cmp	r3, #11
 800359c:	d903      	bls.n	80035a6 <_malloc_r+0x6e>
 800359e:	6023      	str	r3, [r4, #0]
 80035a0:	18e4      	adds	r4, r4, r3
 80035a2:	6025      	str	r5, [r4, #0]
 80035a4:	e003      	b.n	80035ae <_malloc_r+0x76>
 80035a6:	6863      	ldr	r3, [r4, #4]
 80035a8:	42a2      	cmp	r2, r4
 80035aa:	d10e      	bne.n	80035ca <_malloc_r+0x92>
 80035ac:	600b      	str	r3, [r1, #0]
 80035ae:	0030      	movs	r0, r6
 80035b0:	f000 f860 	bl	8003674 <__malloc_unlock>
 80035b4:	0020      	movs	r0, r4
 80035b6:	2207      	movs	r2, #7
 80035b8:	300b      	adds	r0, #11
 80035ba:	1d23      	adds	r3, r4, #4
 80035bc:	4390      	bics	r0, r2
 80035be:	1ac2      	subs	r2, r0, r3
 80035c0:	4298      	cmp	r0, r3
 80035c2:	d0e6      	beq.n	8003592 <_malloc_r+0x5a>
 80035c4:	1a1b      	subs	r3, r3, r0
 80035c6:	50a3      	str	r3, [r4, r2]
 80035c8:	e7e3      	b.n	8003592 <_malloc_r+0x5a>
 80035ca:	6053      	str	r3, [r2, #4]
 80035cc:	e7ef      	b.n	80035ae <_malloc_r+0x76>
 80035ce:	0022      	movs	r2, r4
 80035d0:	6864      	ldr	r4, [r4, #4]
 80035d2:	e7c2      	b.n	800355a <_malloc_r+0x22>
 80035d4:	2303      	movs	r3, #3
 80035d6:	1cc4      	adds	r4, r0, #3
 80035d8:	439c      	bics	r4, r3
 80035da:	42a0      	cmp	r0, r4
 80035dc:	d0e1      	beq.n	80035a2 <_malloc_r+0x6a>
 80035de:	1a21      	subs	r1, r4, r0
 80035e0:	0030      	movs	r0, r6
 80035e2:	f000 f82d 	bl	8003640 <_sbrk_r>
 80035e6:	1c43      	adds	r3, r0, #1
 80035e8:	d1db      	bne.n	80035a2 <_malloc_r+0x6a>
 80035ea:	e7c7      	b.n	800357c <_malloc_r+0x44>
 80035ec:	200000ac 	.word	0x200000ac
 80035f0:	200000b0 	.word	0x200000b0

080035f4 <_realloc_r>:
 80035f4:	b5f8      	push	{r3, r4, r5, r6, r7, lr}
 80035f6:	0007      	movs	r7, r0
 80035f8:	000d      	movs	r5, r1
 80035fa:	0016      	movs	r6, r2
 80035fc:	2900      	cmp	r1, #0
 80035fe:	d105      	bne.n	800360c <_realloc_r+0x18>
 8003600:	0011      	movs	r1, r2
 8003602:	f7ff ff99 	bl	8003538 <_malloc_r>
 8003606:	0004      	movs	r4, r0
 8003608:	0020      	movs	r0, r4
 800360a:	bdf8      	pop	{r3, r4, r5, r6, r7, pc}
 800360c:	2a00      	cmp	r2, #0
 800360e:	d103      	bne.n	8003618 <_realloc_r+0x24>
 8003610:	f7ff ff48 	bl	80034a4 <_free_r>
 8003614:	0034      	movs	r4, r6
 8003616:	e7f7      	b.n	8003608 <_realloc_r+0x14>
 8003618:	f000 f834 	bl	8003684 <_malloc_usable_size_r>
 800361c:	002c      	movs	r4, r5
 800361e:	42b0      	cmp	r0, r6
 8003620:	d2f2      	bcs.n	8003608 <_realloc_r+0x14>
 8003622:	0031      	movs	r1, r6
 8003624:	0038      	movs	r0, r7
 8003626:	f7ff ff87 	bl	8003538 <_malloc_r>
 800362a:	1e04      	subs	r4, r0, #0
 800362c:	d0ec      	beq.n	8003608 <_realloc_r+0x14>
 800362e:	0029      	movs	r1, r5
 8003630:	0032      	movs	r2, r6
 8003632:	f7ff ff1a 	bl	800346a <memcpy>
 8003636:	0029      	movs	r1, r5
 8003638:	0038      	movs	r0, r7
 800363a:	f7ff ff33 	bl	80034a4 <_free_r>
 800363e:	e7e3      	b.n	8003608 <_realloc_r+0x14>

08003640 <_sbrk_r>:
 8003640:	2300      	movs	r3, #0
 8003642:	b570      	push	{r4, r5, r6, lr}
 8003644:	4d06      	ldr	r5, [pc, #24]	; (8003660 <_sbrk_r+0x20>)
 8003646:	0004      	movs	r4, r0
 8003648:	0008      	movs	r0, r1
 800364a:	602b      	str	r3, [r5, #0]
 800364c:	f7fe f886 	bl	800175c <_sbrk>
 8003650:	1c43      	adds	r3, r0, #1
 8003652:	d103      	bne.n	800365c <_sbrk_r+0x1c>
 8003654:	682b      	ldr	r3, [r5, #0]
 8003656:	2b00      	cmp	r3, #0
 8003658:	d000      	beq.n	800365c <_sbrk_r+0x1c>
 800365a:	6023      	str	r3, [r4, #0]
 800365c:	bd70      	pop	{r4, r5, r6, pc}
 800365e:	46c0      	nop			; (mov r8, r8)
 8003660:	2000015c 	.word	0x2000015c

08003664 <__malloc_lock>:
 8003664:	b510      	push	{r4, lr}
 8003666:	4802      	ldr	r0, [pc, #8]	; (8003670 <__malloc_lock+0xc>)
 8003668:	f000 f814 	bl	8003694 <__retarget_lock_acquire_recursive>
 800366c:	bd10      	pop	{r4, pc}
 800366e:	46c0      	nop			; (mov r8, r8)
 8003670:	20000164 	.word	0x20000164

08003674 <__malloc_unlock>:
 8003674:	b510      	push	{r4, lr}
 8003676:	4802      	ldr	r0, [pc, #8]	; (8003680 <__malloc_unlock+0xc>)
 8003678:	f000 f80d 	bl	8003696 <__retarget_lock_release_recursive>
 800367c:	bd10      	pop	{r4, pc}
 800367e:	46c0      	nop			; (mov r8, r8)
 8003680:	20000164 	.word	0x20000164

08003684 <_malloc_usable_size_r>:
 8003684:	1f0b      	subs	r3, r1, #4
 8003686:	681b      	ldr	r3, [r3, #0]
 8003688:	1f18      	subs	r0, r3, #4
 800368a:	2b00      	cmp	r3, #0
 800368c:	da01      	bge.n	8003692 <_malloc_usable_size_r+0xe>
 800368e:	580b      	ldr	r3, [r1, r0]
 8003690:	18c0      	adds	r0, r0, r3
 8003692:	4770      	bx	lr

08003694 <__retarget_lock_acquire_recursive>:
 8003694:	4770      	bx	lr

08003696 <__retarget_lock_release_recursive>:
 8003696:	4770      	bx	lr

08003698 <_init>:
 8003698:	b5f8      	push	{r3, r4, r5, r6, r7, lr}
 800369a:	46c0      	nop			; (mov r8, r8)
 800369c:	bcf8      	pop	{r3, r4, r5, r6, r7}
 800369e:	bc08      	pop	{r3}
 80036a0:	469e      	mov	lr, r3
 80036a2:	4770      	bx	lr

080036a4 <_fini>:
 80036a4:	b5f8      	push	{r3, r4, r5, r6, r7, lr}
 80036a6:	46c0      	nop			; (mov r8, r8)
 80036a8:	bcf8      	pop	{r3, r4, r5, r6, r7}
 80036aa:	bc08      	pop	{r3}
 80036ac:	469e      	mov	lr, r3
 80036ae:	4770      	bx	lr
